Archive member included to satisfy reference by file (symbol)

D:/code_and_stuff/tools/mingw/ucrt64/bin/../lib/gcc/x86_64-w64-mingw32/15.2.0/../../../../lib/libmingw32.a(lib64_libmingw32_a-gccmain.o)
                              D:/code_and_stuff/tools/mingw/ucrt64/bin/../lib/gcc/x86_64-w64-mingw32/15.2.0/../../../../lib/crt2.o (__main)
D:/code_and_stuff/tools/mingw/ucrt64/bin/../lib/gcc/x86_64-w64-mingw32/15.2.0/../../../../lib/libmingw32.a(lib64_libmingw32_a-natstart.o)
                              D:/code_and_stuff/tools/mingw/ucrt64/bin/../lib/gcc/x86_64-w64-mingw32/15.2.0/../../../../lib/crt2.o (__native_startup_lock)
D:/code_and_stuff/tools/mingw/ucrt64/bin/../lib/gcc/x86_64-w64-mingw32/15.2.0/../../../../lib/libmingw32.a(lib64_libmingw32_a-wildcard.o)
                              D:/code_and_stuff/tools/mingw/ucrt64/bin/../lib/gcc/x86_64-w64-mingw32/15.2.0/../../../../lib/crt2.o (_dowildcard)
D:/code_and_stuff/tools/mingw/ucrt64/bin/../lib/gcc/x86_64-w64-mingw32/15.2.0/../../../../lib/libmingw32.a(lib64_libmingw32_a-dllargv.o)
                              D:/code_and_stuff/tools/mingw/ucrt64/bin/../lib/gcc/x86_64-w64-mingw32/15.2.0/../../../../lib/crt2.o (_setargv)
D:/code_and_stuff/tools/mingw/ucrt64/bin/../lib/gcc/x86_64-w64-mingw32/15.2.0/../../../../lib/libmingw32.a(lib64_libmingw32_a-_newmode.o)
                              D:/code_and_stuff/tools/mingw/ucrt64/bin/../lib/gcc/x86_64-w64-mingw32/15.2.0/../../../../lib/crt2.o (_newmode)
D:/code_and_stuff/tools/mingw/ucrt64/bin/../lib/gcc/x86_64-w64-mingw32/15.2.0/../../../../lib/libmingw32.a(lib64_libmingw32_a-tlssup.o)
                              D:/code_and_stuff/tools/mingw/ucrt64/bin/../lib/gcc/x86_64-w64-mingw32/15.2.0/../../../../lib/crt2.o (__mingw_initltssuo_force)
D:/code_and_stuff/tools/mingw/ucrt64/bin/../lib/gcc/x86_64-w64-mingw32/15.2.0/../../../../lib/libmingw32.a(lib64_libmingw32_a-xncommod.o)
                              D:/code_and_stuff/tools/mingw/ucrt64/bin/../lib/gcc/x86_64-w64-mingw32/15.2.0/../../../../lib/crt2.o (_commode)
D:/code_and_stuff/tools/mingw/ucrt64/bin/../lib/gcc/x86_64-w64-mingw32/15.2.0/../../../../lib/libmingw32.a(lib64_libmingw32_a-cinitexe.o)
                              D:/code_and_stuff/tools/mingw/ucrt64/bin/../lib/gcc/x86_64-w64-mingw32/15.2.0/../../../../lib/crt2.o (__xc_z)
D:/code_and_stuff/tools/mingw/ucrt64/bin/../lib/gcc/x86_64-w64-mingw32/15.2.0/../../../../lib/libmingw32.a(lib64_libmingw32_a-merr.o)
                              D:/code_and_stuff/tools/mingw/ucrt64/bin/../lib/gcc/x86_64-w64-mingw32/15.2.0/../../../../lib/crt2.o (_matherr)
D:/code_and_stuff/tools/mingw/ucrt64/bin/../lib/gcc/x86_64-w64-mingw32/15.2.0/../../../../lib/libmingw32.a(lib64_libmingw32_a-xthdloc.o)
                              D:/code_and_stuff/tools/mingw/ucrt64/bin/../lib/gcc/x86_64-w64-mingw32/15.2.0/../../../../lib/crt2.o (__globallocalestatus)
D:/code_and_stuff/tools/mingw/ucrt64/bin/../lib/gcc/x86_64-w64-mingw32/15.2.0/../../../../lib/libmingw32.a(lib64_libmingw32_a-mingw_helpers.o)
                              D:/code_and_stuff/tools/mingw/ucrt64/bin/../lib/gcc/x86_64-w64-mingw32/15.2.0/../../../../lib/crt2.o (__mingw_app_type)
D:/code_and_stuff/tools/mingw/ucrt64/bin/../lib/gcc/x86_64-w64-mingw32/15.2.0/../../../../lib/libmingw32.a(lib64_libmingw32_a-pseudo-reloc.o)
                              D:/code_and_stuff/tools/mingw/ucrt64/bin/../lib/gcc/x86_64-w64-mingw32/15.2.0/../../../../lib/crt2.o (_pei386_runtime_relocator)
D:/code_and_stuff/tools/mingw/ucrt64/bin/../lib/gcc/x86_64-w64-mingw32/15.2.0/../../../../lib/libmingw32.a(lib64_libmingw32_a-usermatherr.o)
                              D:/code_and_stuff/tools/mingw/ucrt64/bin/../lib/gcc/x86_64-w64-mingw32/15.2.0/../../../../lib/crt2.o (__mingw_setusermatherr)
D:/code_and_stuff/tools/mingw/ucrt64/bin/../lib/gcc/x86_64-w64-mingw32/15.2.0/../../../../lib/libmingw32.a(lib64_libmingw32_a-xtxtmode.o)
                              D:/code_and_stuff/tools/mingw/ucrt64/bin/../lib/gcc/x86_64-w64-mingw32/15.2.0/../../../../lib/crt2.o (_fmode)
D:/code_and_stuff/tools/mingw/ucrt64/bin/../lib/gcc/x86_64-w64-mingw32/15.2.0/../../../../lib/libmingw32.a(lib64_libmingw32_a-crt_handler.o)
                              D:/code_and_stuff/tools/mingw/ucrt64/bin/../lib/gcc/x86_64-w64-mingw32/15.2.0/../../../../lib/crt2.o (_gnu_exception_handler)
D:/code_and_stuff/tools/mingw/ucrt64/bin/../lib/gcc/x86_64-w64-mingw32/15.2.0/../../../../lib/libmingw32.a(lib64_libmingw32_a-tlsthrd.o)
                              D:/code_and_stuff/tools/mingw/ucrt64/bin/../lib/gcc/x86_64-w64-mingw32/15.2.0/../../../../lib/libmingw32.a(lib64_libmingw32_a-tlssup.o) (__mingw_TLScallback)
D:/code_and_stuff/tools/mingw/ucrt64/bin/../lib/gcc/x86_64-w64-mingw32/15.2.0/../../../../lib/libmingw32.a(lib64_libmingw32_a-tlsmcrt.o)
                              D:/code_and_stuff/tools/mingw/ucrt64/bin/../lib/gcc/x86_64-w64-mingw32/15.2.0/../../../../lib/libmingw32.a(lib64_libmingw32_a-tlssup.o) (_CRT_MT)
D:/code_and_stuff/tools/mingw/ucrt64/bin/../lib/gcc/x86_64-w64-mingw32/15.2.0/../../../../lib/libmingw32.a(lib64_libmingw32_a-CRT_fp10.o)
                              D:/code_and_stuff/tools/mingw/ucrt64/bin/../lib/gcc/x86_64-w64-mingw32/15.2.0/../../../../lib/crt2.o (_fpreset)
D:/code_and_stuff/tools/mingw/ucrt64/bin/../lib/gcc/x86_64-w64-mingw32/15.2.0/../../../../lib/libmingw32.a(lib64_libmingw32_a-pseudo-reloc-list.o)
                              D:/code_and_stuff/tools/mingw/ucrt64/bin/../lib/gcc/x86_64-w64-mingw32/15.2.0/../../../../lib/libmingw32.a(lib64_libmingw32_a-pseudo-reloc.o) (__RUNTIME_PSEUDO_RELOC_LIST__)
D:/code_and_stuff/tools/mingw/ucrt64/bin/../lib/gcc/x86_64-w64-mingw32/15.2.0/../../../../lib/libmingw32.a(lib64_libmingw32_a-pesect.o)
                              D:/code_and_stuff/tools/mingw/ucrt64/bin/../lib/gcc/x86_64-w64-mingw32/15.2.0/../../../../lib/libmingw32.a(lib64_libmingw32_a-pseudo-reloc.o) (__mingw_GetSectionForAddress)
D:/code_and_stuff/tools/mingw/ucrt64/bin/../lib/gcc/x86_64-w64-mingw32/15.2.0/libgcc.a(_chkstk_ms.o)
                              D:/code_and_stuff/tools/mingw/ucrt64/bin/../lib/gcc/x86_64-w64-mingw32/15.2.0/../../../../lib/libmingw32.a(lib64_libmingw32_a-pseudo-reloc.o) (___chkstk_ms)
D:/code_and_stuff/tools/mingw/ucrt64/bin/../lib/gcc/x86_64-w64-mingw32/15.2.0/libgcc.a(_ctors.o)
                              D:/code_and_stuff/tools/mingw/ucrt64/bin/../lib/gcc/x86_64-w64-mingw32/15.2.0/../../../../lib/libmingw32.a(lib64_libmingw32_a-gccmain.o) (__DTOR_LIST__)
D:/code_and_stuff/tools/mingw/ucrt64/bin/../lib/gcc/x86_64-w64-mingw32/15.2.0/../../../../lib/libmingwex.a(lib64_libmingwex_a-mingw_matherr.o)
                              D:/code_and_stuff/tools/mingw/ucrt64/bin/../lib/gcc/x86_64-w64-mingw32/15.2.0/../../../../lib/crt2.o (_MINGW_INSTALL_DEBUG_MATHERR)
D:/code_and_stuff/tools/mingw/ucrt64/bin/../lib/gcc/x86_64-w64-mingw32/15.2.0/../../../../lib/libmsvcrt.a(lib64_libucrt_extra_a-ucrt_vfprintf.o)
                              D:/code_and_stuff/tools/mingw/ucrt64/bin/../lib/gcc/x86_64-w64-mingw32/15.2.0/../../../../lib/libmingw32.a(lib64_libmingw32_a-pseudo-reloc.o) (vfprintf)
D:/code_and_stuff/tools/mingw/ucrt64/bin/../lib/gcc/x86_64-w64-mingw32/15.2.0/../../../../lib/libmsvcrt.a(lib64_libucrt_extra_a-ucrt_scanf.o)
                              intermediates/objects/cliArgs.o (scanf)
D:/code_and_stuff/tools/mingw/ucrt64/bin/../lib/gcc/x86_64-w64-mingw32/15.2.0/../../../../lib/libmsvcrt.a(lib64_libucrt_extra_a-ucrt_printf.o)
                              intermediates/objects/cliArgs.o (printf)
D:/code_and_stuff/tools/mingw/ucrt64/bin/../lib/gcc/x86_64-w64-mingw32/15.2.0/../../../../lib/libmsvcrt.a(lib64_libucrt_extra_a-ucrt_fprintf.o)
                              intermediates/objects/cliArgs.o (fprintf)
D:/code_and_stuff/tools/mingw/ucrt64/bin/../lib/gcc/x86_64-w64-mingw32/15.2.0/../../../../lib/libmsvcrt.a(lib64_libucrt_extra_a-ucrt___local_stdio_scanf_options.o)
                              D:/code_and_stuff/tools/mingw/ucrt64/bin/../lib/gcc/x86_64-w64-mingw32/15.2.0/../../../../lib/libmsvcrt.a(lib64_libucrt_extra_a-ucrt_scanf.o) (__local_stdio_scanf_options)
D:/code_and_stuff/tools/mingw/ucrt64/bin/../lib/gcc/x86_64-w64-mingw32/15.2.0/../../../../lib/libmsvcrt.a(lib64_libucrt_extra_a-ucrt___local_stdio_printf_options.o)
                              D:/code_and_stuff/tools/mingw/ucrt64/bin/../lib/gcc/x86_64-w64-mingw32/15.2.0/../../../../lib/libmsvcrt.a(lib64_libucrt_extra_a-ucrt_vfprintf.o) (__local_stdio_printf_options)
D:/code_and_stuff/tools/mingw/ucrt64/bin/../lib/gcc/x86_64-w64-mingw32/15.2.0/../../../../lib/libmsvcrt.a(lib64_libucrt_extra_a-__p___initenv.o)
                              D:/code_and_stuff/tools/mingw/ucrt64/bin/../lib/gcc/x86_64-w64-mingw32/15.2.0/../../../../lib/crt2.o (__p___initenv)
D:/code_and_stuff/tools/mingw/ucrt64/bin/../lib/gcc/x86_64-w64-mingw32/15.2.0/../../../../lib/libmsvcrt.a(lib64_libucrt_extra_a-ucrt_amsg_exit.o)
                              D:/code_and_stuff/tools/mingw/ucrt64/bin/../lib/gcc/x86_64-w64-mingw32/15.2.0/../../../../lib/crt2.o (_amsg_exit)
D:/code_and_stuff/tools/mingw/ucrt64/bin/../lib/gcc/x86_64-w64-mingw32/15.2.0/../../../../lib/libmsvcrt.a(lib64_libucrt_extra_a-ucrt__getmainargs.o)
                              D:/code_and_stuff/tools/mingw/ucrt64/bin/../lib/gcc/x86_64-w64-mingw32/15.2.0/../../../../lib/crt2.o (__getmainargs)
D:/code_and_stuff/tools/mingw/ucrt64/bin/../lib/gcc/x86_64-w64-mingw32/15.2.0/../../../../lib/libmsvcrt.a(libapi-ms-win-crt-string-l1-1-0s00138.o)
                              intermediates/objects/cliArgs.o (__imp_isspace)
D:/code_and_stuff/tools/mingw/ucrt64/bin/../lib/gcc/x86_64-w64-mingw32/15.2.0/../../../../lib/libmsvcrt.a(libapi-ms-win-crt-string-l1-1-0s00162.o)
                              intermediates/objects/cliArgs.o (strcmp)
D:/code_and_stuff/tools/mingw/ucrt64/bin/../lib/gcc/x86_64-w64-mingw32/15.2.0/../../../../lib/libmsvcrt.a(libapi-ms-win-crt-string-l1-1-0s00164.o)
                              intermediates/objects/cliArgs.o (strcpy)
D:/code_and_stuff/tools/mingw/ucrt64/bin/../lib/gcc/x86_64-w64-mingw32/15.2.0/../../../../lib/libmsvcrt.a(libapi-ms-win-crt-string-l1-1-0s00167.o)
                              D:/code_and_stuff/tools/mingw/ucrt64/bin/../lib/gcc/x86_64-w64-mingw32/15.2.0/../../../../lib/crt2.o (strlen)
D:/code_and_stuff/tools/mingw/ucrt64/bin/../lib/gcc/x86_64-w64-mingw32/15.2.0/../../../../lib/libmsvcrt.a(libapi-ms-win-crt-string-l1-1-0s00170.o)
                              D:/code_and_stuff/tools/mingw/ucrt64/bin/../lib/gcc/x86_64-w64-mingw32/15.2.0/../../../../lib/libmingw32.a(lib64_libmingw32_a-pesect.o) (strncmp)
D:/code_and_stuff/tools/mingw/ucrt64/bin/../lib/gcc/x86_64-w64-mingw32/15.2.0/../../../../lib/libmsvcrt.a(libapi-ms-win-crt-string-l1-1-0s00176.o)
                              intermediates/objects/cliArgs.o (strtok)
D:/code_and_stuff/tools/mingw/ucrt64/bin/../lib/gcc/x86_64-w64-mingw32/15.2.0/../../../../lib/libmsvcrt.a(libapi-ms-win-crt-string-l1-1-0h.o)
                              D:/code_and_stuff/tools/mingw/ucrt64/bin/../lib/gcc/x86_64-w64-mingw32/15.2.0/../../../../lib/libmsvcrt.a(libapi-ms-win-crt-string-l1-1-0s00138.o) (_head_lib64_libapi_ms_win_crt_string_l1_1_0_a)
D:/code_and_stuff/tools/mingw/ucrt64/bin/../lib/gcc/x86_64-w64-mingw32/15.2.0/../../../../lib/libmsvcrt.a(libapi-ms-win-crt-string-l1-1-0t.o)
                              D:/code_and_stuff/tools/mingw/ucrt64/bin/../lib/gcc/x86_64-w64-mingw32/15.2.0/../../../../lib/libmsvcrt.a(libapi-ms-win-crt-string-l1-1-0h.o) (__lib64_libapi_ms_win_crt_string_l1_1_0_a_iname)
D:/code_and_stuff/tools/mingw/ucrt64/bin/../lib/gcc/x86_64-w64-mingw32/15.2.0/../../../../lib/libmsvcrt.a(libapi-ms-win-crt-stdio-l1-1-0s00000.o)
                              D:/code_and_stuff/tools/mingw/ucrt64/bin/../lib/gcc/x86_64-w64-mingw32/15.2.0/../../../../lib/libmingw32.a(lib64_libmingw32_a-merr.o) (__acrt_iob_func)
D:/code_and_stuff/tools/mingw/ucrt64/bin/../lib/gcc/x86_64-w64-mingw32/15.2.0/../../../../lib/libmsvcrt.a(libapi-ms-win-crt-stdio-l1-1-0s00001.o)
                              D:/code_and_stuff/tools/mingw/ucrt64/bin/../lib/gcc/x86_64-w64-mingw32/15.2.0/../../../../lib/crt2.o (__p__commode)
D:/code_and_stuff/tools/mingw/ucrt64/bin/../lib/gcc/x86_64-w64-mingw32/15.2.0/../../../../lib/libmsvcrt.a(libapi-ms-win-crt-stdio-l1-1-0s00002.o)
                              D:/code_and_stuff/tools/mingw/ucrt64/bin/../lib/gcc/x86_64-w64-mingw32/15.2.0/../../../../lib/crt2.o (__p__fmode)
D:/code_and_stuff/tools/mingw/ucrt64/bin/../lib/gcc/x86_64-w64-mingw32/15.2.0/../../../../lib/libmsvcrt.a(libapi-ms-win-crt-stdio-l1-1-0s00003.o)
                              D:/code_and_stuff/tools/mingw/ucrt64/bin/../lib/gcc/x86_64-w64-mingw32/15.2.0/../../../../lib/libmsvcrt.a(lib64_libucrt_extra_a-ucrt_vfprintf.o) (__stdio_common_vfprintf)
D:/code_and_stuff/tools/mingw/ucrt64/bin/../lib/gcc/x86_64-w64-mingw32/15.2.0/../../../../lib/libmsvcrt.a(libapi-ms-win-crt-stdio-l1-1-0s00006.o)
                              D:/code_and_stuff/tools/mingw/ucrt64/bin/../lib/gcc/x86_64-w64-mingw32/15.2.0/../../../../lib/libmsvcrt.a(lib64_libucrt_extra_a-ucrt_scanf.o) (__stdio_common_vfscanf)
D:/code_and_stuff/tools/mingw/ucrt64/bin/../lib/gcc/x86_64-w64-mingw32/15.2.0/../../../../lib/libmsvcrt.a(libapi-ms-win-crt-stdio-l1-1-0s00152.o)
                              intermediates/objects/cliArgs.o (fclose)
D:/code_and_stuff/tools/mingw/ucrt64/bin/../lib/gcc/x86_64-w64-mingw32/15.2.0/../../../../lib/libmsvcrt.a(libapi-ms-win-crt-stdio-l1-1-0s00156.o)
                              intermediates/objects/cliArgs.o (fgetc)
D:/code_and_stuff/tools/mingw/ucrt64/bin/../lib/gcc/x86_64-w64-mingw32/15.2.0/../../../../lib/libmsvcrt.a(libapi-ms-win-crt-stdio-l1-1-0s00159.o)
                              intermediates/objects/morse.o (fgets)
D:/code_and_stuff/tools/mingw/ucrt64/bin/../lib/gcc/x86_64-w64-mingw32/15.2.0/../../../../lib/libmsvcrt.a(libapi-ms-win-crt-stdio-l1-1-0s00162.o)
                              intermediates/objects/cliArgs.o (fopen)
D:/code_and_stuff/tools/mingw/ucrt64/bin/../lib/gcc/x86_64-w64-mingw32/15.2.0/../../../../lib/libmsvcrt.a(libapi-ms-win-crt-stdio-l1-1-0s00179.o)
                              intermediates/objects/cliArgs.o (fwrite)
D:/code_and_stuff/tools/mingw/ucrt64/bin/../lib/gcc/x86_64-w64-mingw32/15.2.0/../../../../lib/libmsvcrt.a(libapi-ms-win-crt-stdio-l1-1-0s00188.o)
                              intermediates/objects/dsa.o (putchar)
D:/code_and_stuff/tools/mingw/ucrt64/bin/../lib/gcc/x86_64-w64-mingw32/15.2.0/../../../../lib/libmsvcrt.a(libapi-ms-win-crt-stdio-l1-1-0s00189.o)
                              intermediates/objects/cliArgs.o (puts)
D:/code_and_stuff/tools/mingw/ucrt64/bin/../lib/gcc/x86_64-w64-mingw32/15.2.0/../../../../lib/libmsvcrt.a(libapi-ms-win-crt-stdio-l1-1-0h.o)
                              D:/code_and_stuff/tools/mingw/ucrt64/bin/../lib/gcc/x86_64-w64-mingw32/15.2.0/../../../../lib/libmsvcrt.a(libapi-ms-win-crt-stdio-l1-1-0s00000.o) (_head_lib64_libapi_ms_win_crt_stdio_l1_1_0_a)
D:/code_and_stuff/tools/mingw/ucrt64/bin/../lib/gcc/x86_64-w64-mingw32/15.2.0/../../../../lib/libmsvcrt.a(libapi-ms-win-crt-stdio-l1-1-0t.o)
                              D:/code_and_stuff/tools/mingw/ucrt64/bin/../lib/gcc/x86_64-w64-mingw32/15.2.0/../../../../lib/libmsvcrt.a(libapi-ms-win-crt-stdio-l1-1-0h.o) (__lib64_libapi_ms_win_crt_stdio_l1_1_0_a_iname)
D:/code_and_stuff/tools/mingw/ucrt64/bin/../lib/gcc/x86_64-w64-mingw32/15.2.0/../../../../lib/libmsvcrt.a(libapi-ms-win-crt-runtime-l1-1-0s00004.o)
                              D:/code_and_stuff/tools/mingw/ucrt64/bin/../lib/gcc/x86_64-w64-mingw32/15.2.0/../../../../lib/libmsvcrt.a(lib64_libucrt_extra_a-ucrt__getmainargs.o) (__p___argc)
D:/code_and_stuff/tools/mingw/ucrt64/bin/../lib/gcc/x86_64-w64-mingw32/15.2.0/../../../../lib/libmsvcrt.a(libapi-ms-win-crt-runtime-l1-1-0s00005.o)
                              D:/code_and_stuff/tools/mingw/ucrt64/bin/../lib/gcc/x86_64-w64-mingw32/15.2.0/../../../../lib/libmsvcrt.a(lib64_libucrt_extra_a-ucrt__getmainargs.o) (__p___argv)
D:/code_and_stuff/tools/mingw/ucrt64/bin/../lib/gcc/x86_64-w64-mingw32/15.2.0/../../../../lib/libmsvcrt.a(libapi-ms-win-crt-runtime-l1-1-0s00022.o)
                              D:/code_and_stuff/tools/mingw/ucrt64/bin/../lib/gcc/x86_64-w64-mingw32/15.2.0/../../../../lib/crt2.o (_cexit)
D:/code_and_stuff/tools/mingw/ucrt64/bin/../lib/gcc/x86_64-w64-mingw32/15.2.0/../../../../lib/libmsvcrt.a(libapi-ms-win-crt-runtime-l1-1-0s00024.o)
                              D:/code_and_stuff/tools/mingw/ucrt64/bin/../lib/gcc/x86_64-w64-mingw32/15.2.0/../../../../lib/libmsvcrt.a(lib64_libucrt_extra_a-ucrt__getmainargs.o) (_configure_narrow_argv)
D:/code_and_stuff/tools/mingw/ucrt64/bin/../lib/gcc/x86_64-w64-mingw32/15.2.0/../../../../lib/libmsvcrt.a(libapi-ms-win-crt-runtime-l1-1-0s00030.o)
                              D:/code_and_stuff/tools/mingw/ucrt64/bin/../lib/gcc/x86_64-w64-mingw32/15.2.0/../../../../lib/crt2.o (_crt_atexit)
D:/code_and_stuff/tools/mingw/ucrt64/bin/../lib/gcc/x86_64-w64-mingw32/15.2.0/../../../../lib/libmsvcrt.a(libapi-ms-win-crt-runtime-l1-1-0s00035.o)
                              D:/code_and_stuff/tools/mingw/ucrt64/bin/../lib/gcc/x86_64-w64-mingw32/15.2.0/../../../../lib/libmsvcrt.a(lib64_libucrt_extra_a-ucrt_amsg_exit.o) (_exit)
D:/code_and_stuff/tools/mingw/ucrt64/bin/../lib/gcc/x86_64-w64-mingw32/15.2.0/../../../../lib/libmsvcrt.a(libapi-ms-win-crt-runtime-l1-1-0s00051.o)
                              D:/code_and_stuff/tools/mingw/ucrt64/bin/../lib/gcc/x86_64-w64-mingw32/15.2.0/../../../../lib/libmsvcrt.a(lib64_libucrt_extra_a-ucrt__getmainargs.o) (_initialize_narrow_environment)
D:/code_and_stuff/tools/mingw/ucrt64/bin/../lib/gcc/x86_64-w64-mingw32/15.2.0/../../../../lib/libmsvcrt.a(libapi-ms-win-crt-runtime-l1-1-0s00054.o)
                              D:/code_and_stuff/tools/mingw/ucrt64/bin/../lib/gcc/x86_64-w64-mingw32/15.2.0/../../../../lib/crt2.o (__set_app_type)
D:/code_and_stuff/tools/mingw/ucrt64/bin/../lib/gcc/x86_64-w64-mingw32/15.2.0/../../../../lib/libmsvcrt.a(libapi-ms-win-crt-runtime-l1-1-0s00056.o)
                              D:/code_and_stuff/tools/mingw/ucrt64/bin/../lib/gcc/x86_64-w64-mingw32/15.2.0/../../../../lib/crt2.o (_initterm)
D:/code_and_stuff/tools/mingw/ucrt64/bin/../lib/gcc/x86_64-w64-mingw32/15.2.0/../../../../lib/libmsvcrt.a(libapi-ms-win-crt-runtime-l1-1-0s00057.o)
                              D:/code_and_stuff/tools/mingw/ucrt64/bin/../lib/gcc/x86_64-w64-mingw32/15.2.0/../../../../lib/crt2.o (_initterm_e)
D:/code_and_stuff/tools/mingw/ucrt64/bin/../lib/gcc/x86_64-w64-mingw32/15.2.0/../../../../lib/libmsvcrt.a(libapi-ms-win-crt-runtime-l1-1-0s00073.o)
                              D:/code_and_stuff/tools/mingw/ucrt64/bin/../lib/gcc/x86_64-w64-mingw32/15.2.0/../../../../lib/crt2.o (_set_invalid_parameter_handler)
D:/code_and_stuff/tools/mingw/ucrt64/bin/../lib/gcc/x86_64-w64-mingw32/15.2.0/../../../../lib/libmsvcrt.a(libapi-ms-win-crt-runtime-l1-1-0s00086.o)
                              D:/code_and_stuff/tools/mingw/ucrt64/bin/../lib/gcc/x86_64-w64-mingw32/15.2.0/../../../../lib/libmingw32.a(lib64_libmingw32_a-pseudo-reloc.o) (abort)
D:/code_and_stuff/tools/mingw/ucrt64/bin/../lib/gcc/x86_64-w64-mingw32/15.2.0/../../../../lib/libmsvcrt.a(libapi-ms-win-crt-runtime-l1-1-0s00087.o)
                              D:/code_and_stuff/tools/mingw/ucrt64/bin/../lib/gcc/x86_64-w64-mingw32/15.2.0/../../../../lib/crt2.o (exit)
D:/code_and_stuff/tools/mingw/ucrt64/bin/../lib/gcc/x86_64-w64-mingw32/15.2.0/../../../../lib/libmsvcrt.a(libapi-ms-win-crt-runtime-l1-1-0s00101.o)
                              D:/code_and_stuff/tools/mingw/ucrt64/bin/../lib/gcc/x86_64-w64-mingw32/15.2.0/../../../../lib/libmingw32.a(lib64_libmingw32_a-crt_handler.o) (signal)
D:/code_and_stuff/tools/mingw/ucrt64/bin/../lib/gcc/x86_64-w64-mingw32/15.2.0/../../../../lib/libmsvcrt.a(libapi-ms-win-crt-runtime-l1-1-0h.o)
                              D:/code_and_stuff/tools/mingw/ucrt64/bin/../lib/gcc/x86_64-w64-mingw32/15.2.0/../../../../lib/libmsvcrt.a(libapi-ms-win-crt-runtime-l1-1-0s00004.o) (_head_lib64_libapi_ms_win_crt_runtime_l1_1_0_a)
D:/code_and_stuff/tools/mingw/ucrt64/bin/../lib/gcc/x86_64-w64-mingw32/15.2.0/../../../../lib/libmsvcrt.a(libapi-ms-win-crt-runtime-l1-1-0t.o)
                              D:/code_and_stuff/tools/mingw/ucrt64/bin/../lib/gcc/x86_64-w64-mingw32/15.2.0/../../../../lib/libmsvcrt.a(libapi-ms-win-crt-runtime-l1-1-0h.o) (__lib64_libapi_ms_win_crt_runtime_l1_1_0_a_iname)
D:/code_and_stuff/tools/mingw/ucrt64/bin/../lib/gcc/x86_64-w64-mingw32/15.2.0/../../../../lib/libmsvcrt.a(libapi-ms-win-crt-private-l1-1-0s00012.o)
                              D:/code_and_stuff/tools/mingw/ucrt64/bin/../lib/gcc/x86_64-w64-mingw32/15.2.0/../../../../lib/crt2.o (__C_specific_handler)
D:/code_and_stuff/tools/mingw/ucrt64/bin/../lib/gcc/x86_64-w64-mingw32/15.2.0/../../../../lib/libmsvcrt.a(libapi-ms-win-crt-private-l1-1-0s01088.o)
                              D:/code_and_stuff/tools/mingw/ucrt64/bin/../lib/gcc/x86_64-w64-mingw32/15.2.0/../../../../lib/crt2.o (memcpy)
D:/code_and_stuff/tools/mingw/ucrt64/bin/../lib/gcc/x86_64-w64-mingw32/15.2.0/../../../../lib/libmsvcrt.a(libapi-ms-win-crt-private-l1-1-0h.o)
                              D:/code_and_stuff/tools/mingw/ucrt64/bin/../lib/gcc/x86_64-w64-mingw32/15.2.0/../../../../lib/libmsvcrt.a(libapi-ms-win-crt-private-l1-1-0s00012.o) (_head_lib64_libapi_ms_win_crt_private_l1_1_0_a)
D:/code_and_stuff/tools/mingw/ucrt64/bin/../lib/gcc/x86_64-w64-mingw32/15.2.0/../../../../lib/libmsvcrt.a(libapi-ms-win-crt-private-l1-1-0t.o)
                              D:/code_and_stuff/tools/mingw/ucrt64/bin/../lib/gcc/x86_64-w64-mingw32/15.2.0/../../../../lib/libmsvcrt.a(libapi-ms-win-crt-private-l1-1-0h.o) (__lib64_libapi_ms_win_crt_private_l1_1_0_a_iname)
D:/code_and_stuff/tools/mingw/ucrt64/bin/../lib/gcc/x86_64-w64-mingw32/15.2.0/../../../../lib/libmsvcrt.a(libapi-ms-win-crt-math-l1-1-0s00009.o)
                              D:/code_and_stuff/tools/mingw/ucrt64/bin/../lib/gcc/x86_64-w64-mingw32/15.2.0/../../../../lib/libmingw32.a(lib64_libmingw32_a-usermatherr.o) (__setusermatherr)
D:/code_and_stuff/tools/mingw/ucrt64/bin/../lib/gcc/x86_64-w64-mingw32/15.2.0/../../../../lib/libmsvcrt.a(libapi-ms-win-crt-math-l1-1-0h.o)
                              D:/code_and_stuff/tools/mingw/ucrt64/bin/../lib/gcc/x86_64-w64-mingw32/15.2.0/../../../../lib/libmsvcrt.a(libapi-ms-win-crt-math-l1-1-0s00009.o) (_head_lib64_libapi_ms_win_crt_math_l1_1_0_a)
D:/code_and_stuff/tools/mingw/ucrt64/bin/../lib/gcc/x86_64-w64-mingw32/15.2.0/../../../../lib/libmsvcrt.a(libapi-ms-win-crt-math-l1-1-0t.o)
                              D:/code_and_stuff/tools/mingw/ucrt64/bin/../lib/gcc/x86_64-w64-mingw32/15.2.0/../../../../lib/libmsvcrt.a(libapi-ms-win-crt-math-l1-1-0h.o) (__lib64_libapi_ms_win_crt_math_l1_1_0_a_iname)
D:/code_and_stuff/tools/mingw/ucrt64/bin/../lib/gcc/x86_64-w64-mingw32/15.2.0/../../../../lib/libmsvcrt.a(libapi-ms-win-crt-locale-l1-1-0s00009.o)
                              D:/code_and_stuff/tools/mingw/ucrt64/bin/../lib/gcc/x86_64-w64-mingw32/15.2.0/../../../../lib/crt2.o (_configthreadlocale)
D:/code_and_stuff/tools/mingw/ucrt64/bin/../lib/gcc/x86_64-w64-mingw32/15.2.0/../../../../lib/libmsvcrt.a(libapi-ms-win-crt-locale-l1-1-0h.o)
                              D:/code_and_stuff/tools/mingw/ucrt64/bin/../lib/gcc/x86_64-w64-mingw32/15.2.0/../../../../lib/libmsvcrt.a(libapi-ms-win-crt-locale-l1-1-0s00009.o) (_head_lib64_libapi_ms_win_crt_locale_l1_1_0_a)
D:/code_and_stuff/tools/mingw/ucrt64/bin/../lib/gcc/x86_64-w64-mingw32/15.2.0/../../../../lib/libmsvcrt.a(libapi-ms-win-crt-locale-l1-1-0t.o)
                              D:/code_and_stuff/tools/mingw/ucrt64/bin/../lib/gcc/x86_64-w64-mingw32/15.2.0/../../../../lib/libmsvcrt.a(libapi-ms-win-crt-locale-l1-1-0h.o) (__lib64_libapi_ms_win_crt_locale_l1_1_0_a_iname)
D:/code_and_stuff/tools/mingw/ucrt64/bin/../lib/gcc/x86_64-w64-mingw32/15.2.0/../../../../lib/libmsvcrt.a(libapi-ms-win-crt-heap-l1-1-0s00023.o)
                              D:/code_and_stuff/tools/mingw/ucrt64/bin/../lib/gcc/x86_64-w64-mingw32/15.2.0/../../../../lib/libmsvcrt.a(lib64_libucrt_extra_a-ucrt__getmainargs.o) (_set_new_mode)
D:/code_and_stuff/tools/mingw/ucrt64/bin/../lib/gcc/x86_64-w64-mingw32/15.2.0/../../../../lib/libmsvcrt.a(libapi-ms-win-crt-heap-l1-1-0s00024.o)
                              D:/code_and_stuff/tools/mingw/ucrt64/bin/../lib/gcc/x86_64-w64-mingw32/15.2.0/../../../../lib/libmingw32.a(lib64_libmingw32_a-tlsthrd.o) (calloc)
D:/code_and_stuff/tools/mingw/ucrt64/bin/../lib/gcc/x86_64-w64-mingw32/15.2.0/../../../../lib/libmsvcrt.a(libapi-ms-win-crt-heap-l1-1-0s00025.o)
                              intermediates/objects/cliArgs.o (free)
D:/code_and_stuff/tools/mingw/ucrt64/bin/../lib/gcc/x86_64-w64-mingw32/15.2.0/../../../../lib/libmsvcrt.a(libapi-ms-win-crt-heap-l1-1-0s00026.o)
                              D:/code_and_stuff/tools/mingw/ucrt64/bin/../lib/gcc/x86_64-w64-mingw32/15.2.0/../../../../lib/crt2.o (malloc)
D:/code_and_stuff/tools/mingw/ucrt64/bin/../lib/gcc/x86_64-w64-mingw32/15.2.0/../../../../lib/libmsvcrt.a(libapi-ms-win-crt-heap-l1-1-0s00027.o)
                              intermediates/objects/cliArgs.o (realloc)
D:/code_and_stuff/tools/mingw/ucrt64/bin/../lib/gcc/x86_64-w64-mingw32/15.2.0/../../../../lib/libmsvcrt.a(libapi-ms-win-crt-heap-l1-1-0h.o)
                              D:/code_and_stuff/tools/mingw/ucrt64/bin/../lib/gcc/x86_64-w64-mingw32/15.2.0/../../../../lib/libmsvcrt.a(libapi-ms-win-crt-heap-l1-1-0s00023.o) (_head_lib64_libapi_ms_win_crt_heap_l1_1_0_a)
D:/code_and_stuff/tools/mingw/ucrt64/bin/../lib/gcc/x86_64-w64-mingw32/15.2.0/../../../../lib/libmsvcrt.a(libapi-ms-win-crt-heap-l1-1-0t.o)
                              D:/code_and_stuff/tools/mingw/ucrt64/bin/../lib/gcc/x86_64-w64-mingw32/15.2.0/../../../../lib/libmsvcrt.a(libapi-ms-win-crt-heap-l1-1-0h.o) (__lib64_libapi_ms_win_crt_heap_l1_1_0_a_iname)
D:/code_and_stuff/tools/mingw/ucrt64/bin/../lib/gcc/x86_64-w64-mingw32/15.2.0/../../../../lib/libmsvcrt.a(libapi-ms-win-crt-environment-l1-1-0s00000.o)
                              D:/code_and_stuff/tools/mingw/ucrt64/bin/../lib/gcc/x86_64-w64-mingw32/15.2.0/../../../../lib/libmsvcrt.a(lib64_libucrt_extra_a-ucrt__getmainargs.o) (__p__environ)
D:/code_and_stuff/tools/mingw/ucrt64/bin/../lib/gcc/x86_64-w64-mingw32/15.2.0/../../../../lib/libmsvcrt.a(libapi-ms-win-crt-environment-l1-1-0h.o)
                              D:/code_and_stuff/tools/mingw/ucrt64/bin/../lib/gcc/x86_64-w64-mingw32/15.2.0/../../../../lib/libmsvcrt.a(libapi-ms-win-crt-environment-l1-1-0s00000.o) (_head_lib64_libapi_ms_win_crt_environment_l1_1_0_a)
D:/code_and_stuff/tools/mingw/ucrt64/bin/../lib/gcc/x86_64-w64-mingw32/15.2.0/../../../../lib/libmsvcrt.a(libapi-ms-win-crt-environment-l1-1-0t.o)
                              D:/code_and_stuff/tools/mingw/ucrt64/bin/../lib/gcc/x86_64-w64-mingw32/15.2.0/../../../../lib/libmsvcrt.a(libapi-ms-win-crt-environment-l1-1-0h.o) (__lib64_libapi_ms_win_crt_environment_l1_1_0_a_iname)
D:/code_and_stuff/tools/mingw/ucrt64/bin/../lib/gcc/x86_64-w64-mingw32/15.2.0/../../../../lib/libmsvcrt.a(lib64_libucrt_extra_a-__initenv.o)
                              D:/code_and_stuff/tools/mingw/ucrt64/bin/../lib/gcc/x86_64-w64-mingw32/15.2.0/../../../../lib/libmsvcrt.a(lib64_libucrt_extra_a-__p___initenv.o) (__imp___initenv)
D:/code_and_stuff/tools/mingw/ucrt64/bin/../lib/gcc/x86_64-w64-mingw32/15.2.0/../../../../lib/libkernel32.a(libkernel32s01535.o)
                              D:/code_and_stuff/tools/mingw/ucrt64/bin/../lib/gcc/x86_64-w64-mingw32/15.2.0/../../../../lib/libmingw32.a(lib64_libmingw32_a-pseudo-reloc.o) (__imp_VirtualQuery)
D:/code_and_stuff/tools/mingw/ucrt64/bin/../lib/gcc/x86_64-w64-mingw32/15.2.0/../../../../lib/libkernel32.a(libkernel32s01533.o)
                              D:/code_and_stuff/tools/mingw/ucrt64/bin/../lib/gcc/x86_64-w64-mingw32/15.2.0/../../../../lib/libmingw32.a(lib64_libmingw32_a-pseudo-reloc.o) (__imp_VirtualProtect)
D:/code_and_stuff/tools/mingw/ucrt64/bin/../lib/gcc/x86_64-w64-mingw32/15.2.0/../../../../lib/libkernel32.a(libkernel32s01485.o)
                              D:/code_and_stuff/tools/mingw/ucrt64/bin/../lib/gcc/x86_64-w64-mingw32/15.2.0/../../../../lib/libmingw32.a(lib64_libmingw32_a-tlsthrd.o) (__imp_TlsGetValue)
D:/code_and_stuff/tools/mingw/ucrt64/bin/../lib/gcc/x86_64-w64-mingw32/15.2.0/../../../../lib/libkernel32.a(libkernel32s01449.o)
                              D:/code_and_stuff/tools/mingw/ucrt64/bin/../lib/gcc/x86_64-w64-mingw32/15.2.0/../../../../lib/crt2.o (__imp_Sleep)
D:/code_and_stuff/tools/mingw/ucrt64/bin/../lib/gcc/x86_64-w64-mingw32/15.2.0/../../../../lib/libkernel32.a(libkernel32s01433.o)
                              D:/code_and_stuff/tools/mingw/ucrt64/bin/../lib/gcc/x86_64-w64-mingw32/15.2.0/../../../../lib/crt2.o (__imp_SetUnhandledExceptionFilter)
D:/code_and_stuff/tools/mingw/ucrt64/bin/../lib/gcc/x86_64-w64-mingw32/15.2.0/../../../../lib/libkernel32.a(libkernel32s01012.o)
                              D:/code_and_stuff/tools/mingw/ucrt64/bin/../lib/gcc/x86_64-w64-mingw32/15.2.0/../../../../lib/libmingw32.a(lib64_libmingw32_a-tlsthrd.o) (__imp_LeaveCriticalSection)
D:/code_and_stuff/tools/mingw/ucrt64/bin/../lib/gcc/x86_64-w64-mingw32/15.2.0/../../../../lib/libkernel32.a(libkernel32s00918.o)
                              D:/code_and_stuff/tools/mingw/ucrt64/bin/../lib/gcc/x86_64-w64-mingw32/15.2.0/../../../../lib/libmingw32.a(lib64_libmingw32_a-tlsthrd.o) (__imp_InitializeCriticalSection)
D:/code_and_stuff/tools/mingw/ucrt64/bin/../lib/gcc/x86_64-w64-mingw32/15.2.0/../../../../lib/libkernel32.a(libkernel32s00648.o)
                              D:/code_and_stuff/tools/mingw/ucrt64/bin/../lib/gcc/x86_64-w64-mingw32/15.2.0/../../../../lib/libmingw32.a(lib64_libmingw32_a-pseudo-reloc.o) (__imp_GetLastError)
D:/code_and_stuff/tools/mingw/ucrt64/bin/../lib/gcc/x86_64-w64-mingw32/15.2.0/../../../../lib/libkernel32.a(libkernel32s00333.o)
                              D:/code_and_stuff/tools/mingw/ucrt64/bin/../lib/gcc/x86_64-w64-mingw32/15.2.0/../../../../lib/libmingw32.a(lib64_libmingw32_a-tlsthrd.o) (__imp_EnterCriticalSection)
D:/code_and_stuff/tools/mingw/ucrt64/bin/../lib/gcc/x86_64-w64-mingw32/15.2.0/../../../../lib/libkernel32.a(libkernel32s00295.o)
                              D:/code_and_stuff/tools/mingw/ucrt64/bin/../lib/gcc/x86_64-w64-mingw32/15.2.0/../../../../lib/libmingw32.a(lib64_libmingw32_a-tlsthrd.o) (__imp_DeleteCriticalSection)
D:/code_and_stuff/tools/mingw/ucrt64/bin/../lib/gcc/x86_64-w64-mingw32/15.2.0/../../../../lib/libkernel32.a(libkernel32h.o)
                              D:/code_and_stuff/tools/mingw/ucrt64/bin/../lib/gcc/x86_64-w64-mingw32/15.2.0/../../../../lib/libkernel32.a(libkernel32s01535.o) (_head_lib64_libkernel32_a)
D:/code_and_stuff/tools/mingw/ucrt64/bin/../lib/gcc/x86_64-w64-mingw32/15.2.0/../../../../lib/libkernel32.a(libkernel32t.o)
                              D:/code_and_stuff/tools/mingw/ucrt64/bin/../lib/gcc/x86_64-w64-mingw32/15.2.0/../../../../lib/libkernel32.a(libkernel32h.o) (__lib64_libkernel32_a_iname)

Discarded input sections

 .rdata$.refptr.treeHead
                0x0000000000000000       0x10 intermediates/objects/dsa.o
 .rdata$.refptr.__ImageBase
                0x0000000000000000       0x10 D:/code_and_stuff/tools/mingw/ucrt64/bin/../lib/gcc/x86_64-w64-mingw32/15.2.0/../../../../lib/libmingw32.a(lib64_libmingw32_a-pseudo-reloc.o)
 .rdata$.refptr.__ImageBase
                0x0000000000000000       0x10 D:/code_and_stuff/tools/mingw/ucrt64/bin/../lib/gcc/x86_64-w64-mingw32/15.2.0/../../../../lib/libmingw32.a(lib64_libmingw32_a-pesect.o)

Memory Configuration

Name             Origin             Length             Attributes
*default*        0x0000000000000000 0xffffffffffffffff

Linker script and memory map

                0x0000000140000000                __image_base__ = 0x140000000
                0x0000000000000000                __dll__ = 0x0
                0x0000000140000000                __ImageBase = 0x140000000
                0x0000000000001000                __section_alignment__ = 0x1000
                0x0000000000000200                __file_alignment__ = 0x200
                0x0000000000000004                __major_os_version__ = 0x4
                0x0000000000000000                __minor_os_version__ = 0x0
                0x0000000000000000                __major_image_version__ = 0x0
                0x0000000000000000                __minor_image_version__ = 0x0
                0x0000000000000005                __major_subsystem_version__ = 0x5
                0x0000000000000002                __minor_subsystem_version__ = 0x2
                0x0000000000000003                __subsystem__ = 0x3
                0x0000000000200000                __size_of_stack_reserve__ = 0x200000
                0x0000000000001000                __size_of_stack_commit__ = 0x1000
                0x0000000000100000                __size_of_heap_reserve__ = 0x100000
                0x0000000000001000                __size_of_heap_commit__ = 0x1000
                0x0000000000000000                __loader_flags__ = 0x0
                0x0000000000000160                __dll_characteristics__ = 0x160
LOAD D:/code_and_stuff/tools/mingw/ucrt64/bin/../lib/gcc/x86_64-w64-mingw32/15.2.0/../../../../lib/crt2.o
LOAD D:/code_and_stuff/tools/mingw/ucrt64/bin/../lib/gcc/x86_64-w64-mingw32/15.2.0/crtbegin.o
LOAD intermediates/objects/cliArgs.o
LOAD intermediates/objects/dsa.o
LOAD intermediates/objects/morse.o
LOAD intermediates/objects/structs.o
LOAD D:/code_and_stuff/tools/mingw/ucrt64/bin/../lib/gcc/x86_64-w64-mingw32/15.2.0/../../../../lib/libmingw32.a
LOAD D:/code_and_stuff/tools/mingw/ucrt64/bin/../lib/gcc/x86_64-w64-mingw32/15.2.0/libgcc.a
LOAD D:/code_and_stuff/tools/mingw/ucrt64/bin/../lib/gcc/x86_64-w64-mingw32/15.2.0/libgcc_eh.a
LOAD D:/code_and_stuff/tools/mingw/ucrt64/bin/../lib/gcc/x86_64-w64-mingw32/15.2.0/../../../../lib/libmingwex.a
LOAD D:/code_and_stuff/tools/mingw/ucrt64/bin/../lib/gcc/x86_64-w64-mingw32/15.2.0/../../../../lib/libmsvcrt.a
LOAD D:/code_and_stuff/tools/mingw/ucrt64/bin/../lib/gcc/x86_64-w64-mingw32/15.2.0/../../../../lib/libkernel32.a
LOAD D:/code_and_stuff/tools/mingw/ucrt64/bin/../lib/gcc/x86_64-w64-mingw32/15.2.0/../../../../lib/libpthread.dll.a
LOAD D:/code_and_stuff/tools/mingw/ucrt64/bin/../lib/gcc/x86_64-w64-mingw32/15.2.0/../../../../lib/libadvapi32.a
LOAD D:/code_and_stuff/tools/mingw/ucrt64/bin/../lib/gcc/x86_64-w64-mingw32/15.2.0/../../../../lib/libshell32.a
LOAD D:/code_and_stuff/tools/mingw/ucrt64/bin/../lib/gcc/x86_64-w64-mingw32/15.2.0/../../../../lib/libuser32.a
LOAD D:/code_and_stuff/tools/mingw/ucrt64/bin/../lib/gcc/x86_64-w64-mingw32/15.2.0/../../../../lib/libkernel32.a
LOAD D:/code_and_stuff/tools/mingw/ucrt64/bin/../lib/gcc/x86_64-w64-mingw32/15.2.0/../../../../lib/libmingw32.a
LOAD D:/code_and_stuff/tools/mingw/ucrt64/bin/../lib/gcc/x86_64-w64-mingw32/15.2.0/libgcc.a
LOAD D:/code_and_stuff/tools/mingw/ucrt64/bin/../lib/gcc/x86_64-w64-mingw32/15.2.0/libgcc_eh.a
LOAD D:/code_and_stuff/tools/mingw/ucrt64/bin/../lib/gcc/x86_64-w64-mingw32/15.2.0/../../../../lib/libmingwex.a
LOAD D:/code_and_stuff/tools/mingw/ucrt64/bin/../lib/gcc/x86_64-w64-mingw32/15.2.0/../../../../lib/libmsvcrt.a
LOAD D:/code_and_stuff/tools/mingw/ucrt64/bin/../lib/gcc/x86_64-w64-mingw32/15.2.0/../../../../lib/libkernel32.a
LOAD D:/code_and_stuff/tools/mingw/ucrt64/bin/../lib/gcc/x86_64-w64-mingw32/15.2.0/../../../../lib/default-manifest.o
LOAD D:/code_and_stuff/tools/mingw/ucrt64/bin/../lib/gcc/x86_64-w64-mingw32/15.2.0/crtend.o
                0x0000000000000480                . = SIZEOF_HEADERS
                0x0000000000001000                . = ALIGN (__section_alignment__)

.text           0x0000000140001000     0x2e00
 *(SORT_NONE(.init))
 *(.text)
 .text          0x0000000140001000      0x430 D:/code_and_stuff/tools/mingw/ucrt64/bin/../lib/gcc/x86_64-w64-mingw32/15.2.0/../../../../lib/crt2.o
                0x00000001400013e0                WinMainCRTStartup
                0x0000000140001400                mainCRTStartup
                0x0000000140001420                atexit
 .text          0x0000000140001430       0x20 D:/code_and_stuff/tools/mingw/ucrt64/bin/../lib/gcc/x86_64-w64-mingw32/15.2.0/crtbegin.o
                0x0000000140001430                __gcc_register_frame
                0x0000000140001440                __gcc_deregister_frame
 .text          0x0000000140001450      0x7d0 intermediates/objects/cliArgs.o
                0x0000000140001450                readToken
                0x000000014000155b                runCtfMode
                0x0000000140001744                runRealMode
                0x0000000140001913                cliParser
 .text          0x0000000140001c20      0x950 intermediates/objects/dsa.o
                0x0000000140001c20                insertQueue
                0x0000000140001ce7                printQueue
                0x0000000140001d3c                popQueue
                0x0000000140001df6                traverseTree
                0x0000000140001e87                insertTree
                0x0000000140001f38                printDataPreOrder
                0x0000000140001fb6                printDataInOrder
                0x0000000140002034                pushStack
                0x00000001400020bd                popStack
                0x0000000140002147                peekStack
                0x000000014000219f                isStackEmpty
                0x00000001400021b4                clearStack
                0x00000001400021e9                stackSize
                0x000000014000221e                printStack
                0x00000001400022af                reverseStack
                0x000000014000235d                duplicateTop
                0x00000001400023cc                stackToString
                0x00000001400024d3                pushMultiple
 .text          0x0000000140002570      0x1d0 intermediates/objects/morse.o
                0x0000000140002570                giveAddress
                0x0000000140002641                readFile
                0x000000014000270d                main
 .text          0x0000000140002740       0xf0 intermediates/objects/structs.o
                0x0000000140002740                createNode
                0x00000001400027de                deleteTree
 .text          0x0000000140002830       0xf0 D:/code_and_stuff/tools/mingw/ucrt64/bin/../lib/gcc/x86_64-w64-mingw32/15.2.0/../../../../lib/libmingw32.a(lib64_libmingw32_a-gccmain.o)
                0x0000000140002830                __do_global_dtors
                0x0000000140002880                __do_global_ctors
                0x0000000140002900                __main
 .text          0x0000000140002920        0x0 D:/code_and_stuff/tools/mingw/ucrt64/bin/../lib/gcc/x86_64-w64-mingw32/15.2.0/../../../../lib/libmingw32.a(lib64_libmingw32_a-natstart.o)
 .text          0x0000000140002920        0x0 D:/code_and_stuff/tools/mingw/ucrt64/bin/../lib/gcc/x86_64-w64-mingw32/15.2.0/../../../../lib/libmingw32.a(lib64_libmingw32_a-wildcard.o)
 .text          0x0000000140002920       0x10 D:/code_and_stuff/tools/mingw/ucrt64/bin/../lib/gcc/x86_64-w64-mingw32/15.2.0/../../../../lib/libmingw32.a(lib64_libmingw32_a-dllargv.o)
                0x0000000140002920                _setargv
 .text          0x0000000140002930        0x0 D:/code_and_stuff/tools/mingw/ucrt64/bin/../lib/gcc/x86_64-w64-mingw32/15.2.0/../../../../lib/libmingw32.a(lib64_libmingw32_a-_newmode.o)
 .text          0x0000000140002930       0xb0 D:/code_and_stuff/tools/mingw/ucrt64/bin/../lib/gcc/x86_64-w64-mingw32/15.2.0/../../../../lib/libmingw32.a(lib64_libmingw32_a-tlssup.o)
                0x0000000140002930                __dyn_tls_dtor
                0x0000000140002950                __dyn_tls_init
                0x00000001400029d0                __tlregdtor
 .text          0x00000001400029e0        0x0 D:/code_and_stuff/tools/mingw/ucrt64/bin/../lib/gcc/x86_64-w64-mingw32/15.2.0/../../../../lib/libmingw32.a(lib64_libmingw32_a-xncommod.o)
 .text          0x00000001400029e0        0x0 D:/code_and_stuff/tools/mingw/ucrt64/bin/../lib/gcc/x86_64-w64-mingw32/15.2.0/../../../../lib/libmingw32.a(lib64_libmingw32_a-cinitexe.o)
 .text          0x00000001400029e0      0x100 D:/code_and_stuff/tools/mingw/ucrt64/bin/../lib/gcc/x86_64-w64-mingw32/15.2.0/../../../../lib/libmingw32.a(lib64_libmingw32_a-merr.o)
                0x00000001400029e0                _matherr
 .text          0x0000000140002ae0        0x0 D:/code_and_stuff/tools/mingw/ucrt64/bin/../lib/gcc/x86_64-w64-mingw32/15.2.0/../../../../lib/libmingw32.a(lib64_libmingw32_a-xthdloc.o)
 .text          0x0000000140002ae0        0x0 D:/code_and_stuff/tools/mingw/ucrt64/bin/../lib/gcc/x86_64-w64-mingw32/15.2.0/../../../../lib/libmingw32.a(lib64_libmingw32_a-mingw_helpers.o)
 .text          0x0000000140002ae0      0x560 D:/code_and_stuff/tools/mingw/ucrt64/bin/../lib/gcc/x86_64-w64-mingw32/15.2.0/../../../../lib/libmingw32.a(lib64_libmingw32_a-pseudo-reloc.o)
                0x0000000140002cb0                _pei386_runtime_relocator
 .text          0x0000000140003040       0x50 D:/code_and_stuff/tools/mingw/ucrt64/bin/../lib/gcc/x86_64-w64-mingw32/15.2.0/../../../../lib/libmingw32.a(lib64_libmingw32_a-usermatherr.o)
                0x0000000140003040                __mingw_raise_matherr
                0x0000000140003080                __mingw_setusermatherr
 .text          0x0000000140003090        0x0 D:/code_and_stuff/tools/mingw/ucrt64/bin/../lib/gcc/x86_64-w64-mingw32/15.2.0/../../../../lib/libmingw32.a(lib64_libmingw32_a-xtxtmode.o)
 .text          0x0000000140003090      0x1c0 D:/code_and_stuff/tools/mingw/ucrt64/bin/../lib/gcc/x86_64-w64-mingw32/15.2.0/../../../../lib/libmingw32.a(lib64_libmingw32_a-crt_handler.o)
                0x0000000140003090                _gnu_exception_handler
 *fill*         0x0000000140003250       0x10 
 .text          0x0000000140003260      0x2a0 D:/code_and_stuff/tools/mingw/ucrt64/bin/../lib/gcc/x86_64-w64-mingw32/15.2.0/../../../../lib/libmingw32.a(lib64_libmingw32_a-tlsthrd.o)
                0x00000001400032d0                ___w64_mingwthr_add_key_dtor
                0x0000000140003360                ___w64_mingwthr_remove_key_dtor
                0x00000001400033f0                __mingw_TLScallback
 .text          0x0000000140003500        0x0 D:/code_and_stuff/tools/mingw/ucrt64/bin/../lib/gcc/x86_64-w64-mingw32/15.2.0/../../../../lib/libmingw32.a(lib64_libmingw32_a-tlsmcrt.o)
 .text          0x0000000140003500       0x10 D:/code_and_stuff/tools/mingw/ucrt64/bin/../lib/gcc/x86_64-w64-mingw32/15.2.0/../../../../lib/libmingw32.a(lib64_libmingw32_a-CRT_fp10.o)
                0x0000000140003500                fpreset
                0x0000000140003500                _fpreset
 .text          0x0000000140003510        0x0 D:/code_and_stuff/tools/mingw/ucrt64/bin/../lib/gcc/x86_64-w64-mingw32/15.2.0/../../../../lib/libmingw32.a(lib64_libmingw32_a-pseudo-reloc-list.o)
 .text          0x0000000140003510      0x3f0 D:/code_and_stuff/tools/mingw/ucrt64/bin/../lib/gcc/x86_64-w64-mingw32/15.2.0/../../../../lib/libmingw32.a(lib64_libmingw32_a-pesect.o)
                0x0000000140003510                _ValidateImageBase
                0x0000000140003540                _FindPESection
                0x0000000140003590                _FindPESectionByName
                0x0000000140003630                __mingw_GetSectionForAddress
                0x00000001400036b0                __mingw_GetSectionCount
                0x00000001400036f0                _FindPESectionExec
                0x0000000140003770                _GetPEImageBase
                0x00000001400037b0                _IsNonwritableInCurrentImage
                0x0000000140003840                __mingw_enum_import_library_names
 .text          0x0000000140003900       0x40 D:/code_and_stuff/tools/mingw/ucrt64/bin/../lib/gcc/x86_64-w64-mingw32/15.2.0/libgcc.a(_chkstk_ms.o)
                0x0000000140003900                ___chkstk_ms
 .text          0x0000000140003940        0x0 D:/code_and_stuff/tools/mingw/ucrt64/bin/../lib/gcc/x86_64-w64-mingw32/15.2.0/libgcc.a(_ctors.o)
 .text          0x0000000140003940        0x0 D:/code_and_stuff/tools/mingw/ucrt64/bin/../lib/gcc/x86_64-w64-mingw32/15.2.0/../../../../lib/libmingwex.a(lib64_libmingwex_a-mingw_matherr.o)
 .text          0x0000000140003940       0x40 D:/code_and_stuff/tools/mingw/ucrt64/bin/../lib/gcc/x86_64-w64-mingw32/15.2.0/../../../../lib/libmsvcrt.a(lib64_libucrt_extra_a-ucrt_vfprintf.o)
                0x0000000140003940                vfprintf
 .text          0x0000000140003980       0x50 D:/code_and_stuff/tools/mingw/ucrt64/bin/../lib/gcc/x86_64-w64-mingw32/15.2.0/../../../../lib/libmsvcrt.a(lib64_libucrt_extra_a-ucrt_scanf.o)
                0x0000000140003980                scanf
 .text          0x00000001400039d0       0x60 D:/code_and_stuff/tools/mingw/ucrt64/bin/../lib/gcc/x86_64-w64-mingw32/15.2.0/../../../../lib/libmsvcrt.a(lib64_libucrt_extra_a-ucrt_printf.o)
                0x00000001400039d0                printf
 .text          0x0000000140003a30       0x50 D:/code_and_stuff/tools/mingw/ucrt64/bin/../lib/gcc/x86_64-w64-mingw32/15.2.0/../../../../lib/libmsvcrt.a(lib64_libucrt_extra_a-ucrt_fprintf.o)
                0x0000000140003a30                fprintf
 .text          0x0000000140003a80       0x10 D:/code_and_stuff/tools/mingw/ucrt64/bin/../lib/gcc/x86_64-w64-mingw32/15.2.0/../../../../lib/libmsvcrt.a(lib64_libucrt_extra_a-ucrt___local_stdio_scanf_options.o)
                0x0000000140003a80                __local_stdio_scanf_options
 .text          0x0000000140003a90       0x10 D:/code_and_stuff/tools/mingw/ucrt64/bin/../lib/gcc/x86_64-w64-mingw32/15.2.0/../../../../lib/libmsvcrt.a(lib64_libucrt_extra_a-ucrt___local_stdio_printf_options.o)
                0x0000000140003a90                __local_stdio_printf_options
 .text          0x0000000140003aa0       0x10 D:/code_and_stuff/tools/mingw/ucrt64/bin/../lib/gcc/x86_64-w64-mingw32/15.2.0/../../../../lib/libmsvcrt.a(lib64_libucrt_extra_a-__p___initenv.o)
                0x0000000140003aa0                __p___initenv
 .text          0x0000000140003ab0       0x30 D:/code_and_stuff/tools/mingw/ucrt64/bin/../lib/gcc/x86_64-w64-mingw32/15.2.0/../../../../lib/libmsvcrt.a(lib64_libucrt_extra_a-ucrt_amsg_exit.o)
                0x0000000140003ab0                _amsg_exit
 .text          0x0000000140003ae0       0x60 D:/code_and_stuff/tools/mingw/ucrt64/bin/../lib/gcc/x86_64-w64-mingw32/15.2.0/../../../../lib/libmsvcrt.a(lib64_libucrt_extra_a-ucrt__getmainargs.o)
                0x0000000140003ae0                __getmainargs
 .text          0x0000000140003b40        0x8 D:/code_and_stuff/tools/mingw/ucrt64/bin/../lib/gcc/x86_64-w64-mingw32/15.2.0/../../../../lib/libmsvcrt.a(libapi-ms-win-crt-string-l1-1-0s00138.o)
                0x0000000140003b40                isspace
 .text          0x0000000140003b48        0x8 D:/code_and_stuff/tools/mingw/ucrt64/bin/../lib/gcc/x86_64-w64-mingw32/15.2.0/../../../../lib/libmsvcrt.a(libapi-ms-win-crt-string-l1-1-0s00162.o)
                0x0000000140003b48                strcmp
 .text          0x0000000140003b50        0x8 D:/code_and_stuff/tools/mingw/ucrt64/bin/../lib/gcc/x86_64-w64-mingw32/15.2.0/../../../../lib/libmsvcrt.a(libapi-ms-win-crt-string-l1-1-0s00164.o)
                0x0000000140003b50                strcpy
 .text          0x0000000140003b58        0x8 D:/code_and_stuff/tools/mingw/ucrt64/bin/../lib/gcc/x86_64-w64-mingw32/15.2.0/../../../../lib/libmsvcrt.a(libapi-ms-win-crt-string-l1-1-0s00167.o)
                0x0000000140003b58                strlen
 .text          0x0000000140003b60        0x8 D:/code_and_stuff/tools/mingw/ucrt64/bin/../lib/gcc/x86_64-w64-mingw32/15.2.0/../../../../lib/libmsvcrt.a(libapi-ms-win-crt-string-l1-1-0s00170.o)
                0x0000000140003b60                strncmp
 .text          0x0000000140003b68        0x8 D:/code_and_stuff/tools/mingw/ucrt64/bin/../lib/gcc/x86_64-w64-mingw32/15.2.0/../../../../lib/libmsvcrt.a(libapi-ms-win-crt-string-l1-1-0s00176.o)
                0x0000000140003b68                strtok
 .text          0x0000000140003b70        0x0 D:/code_and_stuff/tools/mingw/ucrt64/bin/../lib/gcc/x86_64-w64-mingw32/15.2.0/../../../../lib/libmsvcrt.a(libapi-ms-win-crt-string-l1-1-0h.o)
 .text          0x0000000140003b70        0x0 D:/code_and_stuff/tools/mingw/ucrt64/bin/../lib/gcc/x86_64-w64-mingw32/15.2.0/../../../../lib/libmsvcrt.a(libapi-ms-win-crt-string-l1-1-0t.o)
 .text          0x0000000140003b70        0x8 D:/code_and_stuff/tools/mingw/ucrt64/bin/../lib/gcc/x86_64-w64-mingw32/15.2.0/../../../../lib/libmsvcrt.a(libapi-ms-win-crt-stdio-l1-1-0s00000.o)
                0x0000000140003b70                __acrt_iob_func
 .text          0x0000000140003b78        0x8 D:/code_and_stuff/tools/mingw/ucrt64/bin/../lib/gcc/x86_64-w64-mingw32/15.2.0/../../../../lib/libmsvcrt.a(libapi-ms-win-crt-stdio-l1-1-0s00001.o)
                0x0000000140003b78                __p__commode
 .text          0x0000000140003b80        0x8 D:/code_and_stuff/tools/mingw/ucrt64/bin/../lib/gcc/x86_64-w64-mingw32/15.2.0/../../../../lib/libmsvcrt.a(libapi-ms-win-crt-stdio-l1-1-0s00002.o)
                0x0000000140003b80                __p__fmode
 .text          0x0000000140003b88        0x8 D:/code_and_stuff/tools/mingw/ucrt64/bin/../lib/gcc/x86_64-w64-mingw32/15.2.0/../../../../lib/libmsvcrt.a(libapi-ms-win-crt-stdio-l1-1-0s00003.o)
                0x0000000140003b88                __stdio_common_vfprintf
 .text          0x0000000140003b90        0x8 D:/code_and_stuff/tools/mingw/ucrt64/bin/../lib/gcc/x86_64-w64-mingw32/15.2.0/../../../../lib/libmsvcrt.a(libapi-ms-win-crt-stdio-l1-1-0s00006.o)
                0x0000000140003b90                __stdio_common_vfscanf
 .text          0x0000000140003b98        0x8 D:/code_and_stuff/tools/mingw/ucrt64/bin/../lib/gcc/x86_64-w64-mingw32/15.2.0/../../../../lib/libmsvcrt.a(libapi-ms-win-crt-stdio-l1-1-0s00152.o)
                0x0000000140003b98                fclose
 .text          0x0000000140003ba0        0x8 D:/code_and_stuff/tools/mingw/ucrt64/bin/../lib/gcc/x86_64-w64-mingw32/15.2.0/../../../../lib/libmsvcrt.a(libapi-ms-win-crt-stdio-l1-1-0s00156.o)
                0x0000000140003ba0                fgetc
 .text          0x0000000140003ba8        0x8 D:/code_and_stuff/tools/mingw/ucrt64/bin/../lib/gcc/x86_64-w64-mingw32/15.2.0/../../../../lib/libmsvcrt.a(libapi-ms-win-crt-stdio-l1-1-0s00159.o)
                0x0000000140003ba8                fgets
 .text          0x0000000140003bb0        0x8 D:/code_and_stuff/tools/mingw/ucrt64/bin/../lib/gcc/x86_64-w64-mingw32/15.2.0/../../../../lib/libmsvcrt.a(libapi-ms-win-crt-stdio-l1-1-0s00162.o)
                0x0000000140003bb0                fopen
 .text          0x0000000140003bb8        0x8 D:/code_and_stuff/tools/mingw/ucrt64/bin/../lib/gcc/x86_64-w64-mingw32/15.2.0/../../../../lib/libmsvcrt.a(libapi-ms-win-crt-stdio-l1-1-0s00179.o)
                0x0000000140003bb8                fwrite
 .text          0x0000000140003bc0        0x8 D:/code_and_stuff/tools/mingw/ucrt64/bin/../lib/gcc/x86_64-w64-mingw32/15.2.0/../../../../lib/libmsvcrt.a(libapi-ms-win-crt-stdio-l1-1-0s00188.o)
                0x0000000140003bc0                putchar
 .text          0x0000000140003bc8        0x8 D:/code_and_stuff/tools/mingw/ucrt64/bin/../lib/gcc/x86_64-w64-mingw32/15.2.0/../../../../lib/libmsvcrt.a(libapi-ms-win-crt-stdio-l1-1-0s00189.o)
                0x0000000140003bc8                puts
 .text          0x0000000140003bd0        0x0 D:/code_and_stuff/tools/mingw/ucrt64/bin/../lib/gcc/x86_64-w64-mingw32/15.2.0/../../../../lib/libmsvcrt.a(libapi-ms-win-crt-stdio-l1-1-0h.o)
 .text          0x0000000140003bd0        0x0 D:/code_and_stuff/tools/mingw/ucrt64/bin/../lib/gcc/x86_64-w64-mingw32/15.2.0/../../../../lib/libmsvcrt.a(libapi-ms-win-crt-stdio-l1-1-0t.o)
 .text          0x0000000140003bd0        0x8 D:/code_and_stuff/tools/mingw/ucrt64/bin/../lib/gcc/x86_64-w64-mingw32/15.2.0/../../../../lib/libmsvcrt.a(libapi-ms-win-crt-runtime-l1-1-0s00004.o)
                0x0000000140003bd0                __p___argc
 .text          0x0000000140003bd8        0x8 D:/code_and_stuff/tools/mingw/ucrt64/bin/../lib/gcc/x86_64-w64-mingw32/15.2.0/../../../../lib/libmsvcrt.a(libapi-ms-win-crt-runtime-l1-1-0s00005.o)
                0x0000000140003bd8                __p___argv
 .text          0x0000000140003be0        0x8 D:/code_and_stuff/tools/mingw/ucrt64/bin/../lib/gcc/x86_64-w64-mingw32/15.2.0/../../../../lib/libmsvcrt.a(libapi-ms-win-crt-runtime-l1-1-0s00022.o)
                0x0000000140003be0                _cexit
 .text          0x0000000140003be8        0x8 D:/code_and_stuff/tools/mingw/ucrt64/bin/../lib/gcc/x86_64-w64-mingw32/15.2.0/../../../../lib/libmsvcrt.a(libapi-ms-win-crt-runtime-l1-1-0s00024.o)
                0x0000000140003be8                _configure_narrow_argv
 .text          0x0000000140003bf0        0x8 D:/code_and_stuff/tools/mingw/ucrt64/bin/../lib/gcc/x86_64-w64-mingw32/15.2.0/../../../../lib/libmsvcrt.a(libapi-ms-win-crt-runtime-l1-1-0s00030.o)
                0x0000000140003bf0                _crt_atexit
 .text          0x0000000140003bf8        0x8 D:/code_and_stuff/tools/mingw/ucrt64/bin/../lib/gcc/x86_64-w64-mingw32/15.2.0/../../../../lib/libmsvcrt.a(libapi-ms-win-crt-runtime-l1-1-0s00035.o)
                0x0000000140003bf8                _exit
 .text          0x0000000140003c00        0x8 D:/code_and_stuff/tools/mingw/ucrt64/bin/../lib/gcc/x86_64-w64-mingw32/15.2.0/../../../../lib/libmsvcrt.a(libapi-ms-win-crt-runtime-l1-1-0s00051.o)
                0x0000000140003c00                _initialize_narrow_environment
 .text          0x0000000140003c08        0x8 D:/code_and_stuff/tools/mingw/ucrt64/bin/../lib/gcc/x86_64-w64-mingw32/15.2.0/../../../../lib/libmsvcrt.a(libapi-ms-win-crt-runtime-l1-1-0s00054.o)
                0x0000000140003c08                __set_app_type
 .text          0x0000000140003c10        0x8 D:/code_and_stuff/tools/mingw/ucrt64/bin/../lib/gcc/x86_64-w64-mingw32/15.2.0/../../../../lib/libmsvcrt.a(libapi-ms-win-crt-runtime-l1-1-0s00056.o)
                0x0000000140003c10                _initterm
 .text          0x0000000140003c18        0x8 D:/code_and_stuff/tools/mingw/ucrt64/bin/../lib/gcc/x86_64-w64-mingw32/15.2.0/../../../../lib/libmsvcrt.a(libapi-ms-win-crt-runtime-l1-1-0s00057.o)
                0x0000000140003c18                _initterm_e
 .text          0x0000000140003c20        0x8 D:/code_and_stuff/tools/mingw/ucrt64/bin/../lib/gcc/x86_64-w64-mingw32/15.2.0/../../../../lib/libmsvcrt.a(libapi-ms-win-crt-runtime-l1-1-0s00073.o)
                0x0000000140003c20                _set_invalid_parameter_handler
 .text          0x0000000140003c28        0x8 D:/code_and_stuff/tools/mingw/ucrt64/bin/../lib/gcc/x86_64-w64-mingw32/15.2.0/../../../../lib/libmsvcrt.a(libapi-ms-win-crt-runtime-l1-1-0s00086.o)
                0x0000000140003c28                abort
 .text          0x0000000140003c30        0x8 D:/code_and_stuff/tools/mingw/ucrt64/bin/../lib/gcc/x86_64-w64-mingw32/15.2.0/../../../../lib/libmsvcrt.a(libapi-ms-win-crt-runtime-l1-1-0s00087.o)
                0x0000000140003c30                exit
 .text          0x0000000140003c38        0x8 D:/code_and_stuff/tools/mingw/ucrt64/bin/../lib/gcc/x86_64-w64-mingw32/15.2.0/../../../../lib/libmsvcrt.a(libapi-ms-win-crt-runtime-l1-1-0s00101.o)
                0x0000000140003c38                signal
 .text          0x0000000140003c40        0x0 D:/code_and_stuff/tools/mingw/ucrt64/bin/../lib/gcc/x86_64-w64-mingw32/15.2.0/../../../../lib/libmsvcrt.a(libapi-ms-win-crt-runtime-l1-1-0h.o)
 .text          0x0000000140003c40        0x0 D:/code_and_stuff/tools/mingw/ucrt64/bin/../lib/gcc/x86_64-w64-mingw32/15.2.0/../../../../lib/libmsvcrt.a(libapi-ms-win-crt-runtime-l1-1-0t.o)
 .text          0x0000000140003c40        0x8 D:/code_and_stuff/tools/mingw/ucrt64/bin/../lib/gcc/x86_64-w64-mingw32/15.2.0/../../../../lib/libmsvcrt.a(libapi-ms-win-crt-private-l1-1-0s00012.o)
                0x0000000140003c40                __C_specific_handler
 .text          0x0000000140003c48        0x8 D:/code_and_stuff/tools/mingw/ucrt64/bin/../lib/gcc/x86_64-w64-mingw32/15.2.0/../../../../lib/libmsvcrt.a(libapi-ms-win-crt-private-l1-1-0s01088.o)
                0x0000000140003c48                memcpy
 .text          0x0000000140003c50        0x0 D:/code_and_stuff/tools/mingw/ucrt64/bin/../lib/gcc/x86_64-w64-mingw32/15.2.0/../../../../lib/libmsvcrt.a(libapi-ms-win-crt-private-l1-1-0h.o)
 .text          0x0000000140003c50        0x0 D:/code_and_stuff/tools/mingw/ucrt64/bin/../lib/gcc/x86_64-w64-mingw32/15.2.0/../../../../lib/libmsvcrt.a(libapi-ms-win-crt-private-l1-1-0t.o)
 .text          0x0000000140003c50        0x8 D:/code_and_stuff/tools/mingw/ucrt64/bin/../lib/gcc/x86_64-w64-mingw32/15.2.0/../../../../lib/libmsvcrt.a(libapi-ms-win-crt-math-l1-1-0s00009.o)
                0x0000000140003c50                __setusermatherr
 *fill*         0x0000000140003c58        0x8 
 .text          0x0000000140003c60        0x0 D:/code_and_stuff/tools/mingw/ucrt64/bin/../lib/gcc/x86_64-w64-mingw32/15.2.0/../../../../lib/libmsvcrt.a(libapi-ms-win-crt-math-l1-1-0h.o)
 .text          0x0000000140003c60        0x0 D:/code_and_stuff/tools/mingw/ucrt64/bin/../lib/gcc/x86_64-w64-mingw32/15.2.0/../../../../lib/libmsvcrt.a(libapi-ms-win-crt-math-l1-1-0t.o)
 .text          0x0000000140003c60        0x8 D:/code_and_stuff/tools/mingw/ucrt64/bin/../lib/gcc/x86_64-w64-mingw32/15.2.0/../../../../lib/libmsvcrt.a(libapi-ms-win-crt-locale-l1-1-0s00009.o)
                0x0000000140003c60                _configthreadlocale
 *fill*         0x0000000140003c68        0x8 
 .text          0x0000000140003c70        0x0 D:/code_and_stuff/tools/mingw/ucrt64/bin/../lib/gcc/x86_64-w64-mingw32/15.2.0/../../../../lib/libmsvcrt.a(libapi-ms-win-crt-locale-l1-1-0h.o)
 .text          0x0000000140003c70        0x0 D:/code_and_stuff/tools/mingw/ucrt64/bin/../lib/gcc/x86_64-w64-mingw32/15.2.0/../../../../lib/libmsvcrt.a(libapi-ms-win-crt-locale-l1-1-0t.o)
 .text          0x0000000140003c70        0x8 D:/code_and_stuff/tools/mingw/ucrt64/bin/../lib/gcc/x86_64-w64-mingw32/15.2.0/../../../../lib/libmsvcrt.a(libapi-ms-win-crt-heap-l1-1-0s00023.o)
                0x0000000140003c70                _set_new_mode
 .text          0x0000000140003c78        0x8 D:/code_and_stuff/tools/mingw/ucrt64/bin/../lib/gcc/x86_64-w64-mingw32/15.2.0/../../../../lib/libmsvcrt.a(libapi-ms-win-crt-heap-l1-1-0s00024.o)
                0x0000000140003c78                calloc
 .text          0x0000000140003c80        0x8 D:/code_and_stuff/tools/mingw/ucrt64/bin/../lib/gcc/x86_64-w64-mingw32/15.2.0/../../../../lib/libmsvcrt.a(libapi-ms-win-crt-heap-l1-1-0s00025.o)
                0x0000000140003c80                free
 .text          0x0000000140003c88        0x8 D:/code_and_stuff/tools/mingw/ucrt64/bin/../lib/gcc/x86_64-w64-mingw32/15.2.0/../../../../lib/libmsvcrt.a(libapi-ms-win-crt-heap-l1-1-0s00026.o)
                0x0000000140003c88                malloc
 .text          0x0000000140003c90        0x8 D:/code_and_stuff/tools/mingw/ucrt64/bin/../lib/gcc/x86_64-w64-mingw32/15.2.0/../../../../lib/libmsvcrt.a(libapi-ms-win-crt-heap-l1-1-0s00027.o)
                0x0000000140003c90                realloc
 *fill*         0x0000000140003c98        0x8 
 .text          0x0000000140003ca0        0x0 D:/code_and_stuff/tools/mingw/ucrt64/bin/../lib/gcc/x86_64-w64-mingw32/15.2.0/../../../../lib/libmsvcrt.a(libapi-ms-win-crt-heap-l1-1-0h.o)
 .text          0x0000000140003ca0        0x0 D:/code_and_stuff/tools/mingw/ucrt64/bin/../lib/gcc/x86_64-w64-mingw32/15.2.0/../../../../lib/libmsvcrt.a(libapi-ms-win-crt-heap-l1-1-0t.o)
 .text          0x0000000140003ca0        0x8 D:/code_and_stuff/tools/mingw/ucrt64/bin/../lib/gcc/x86_64-w64-mingw32/15.2.0/../../../../lib/libmsvcrt.a(libapi-ms-win-crt-environment-l1-1-0s00000.o)
                0x0000000140003ca0                __p__environ
 *fill*         0x0000000140003ca8        0x8 
 .text          0x0000000140003cb0        0x0 D:/code_and_stuff/tools/mingw/ucrt64/bin/../lib/gcc/x86_64-w64-mingw32/15.2.0/../../../../lib/libmsvcrt.a(libapi-ms-win-crt-environment-l1-1-0h.o)
 .text          0x0000000140003cb0        0x0 D:/code_and_stuff/tools/mingw/ucrt64/bin/../lib/gcc/x86_64-w64-mingw32/15.2.0/../../../../lib/libmsvcrt.a(libapi-ms-win-crt-environment-l1-1-0t.o)
 .text          0x0000000140003cb0        0x0 D:/code_and_stuff/tools/mingw/ucrt64/bin/../lib/gcc/x86_64-w64-mingw32/15.2.0/../../../../lib/libmsvcrt.a(lib64_libucrt_extra_a-__initenv.o)
 .text          0x0000000140003cb0        0x8 D:/code_and_stuff/tools/mingw/ucrt64/bin/../lib/gcc/x86_64-w64-mingw32/15.2.0/../../../../lib/libkernel32.a(libkernel32s01535.o)
                0x0000000140003cb0                VirtualQuery
 .text          0x0000000140003cb8        0x8 D:/code_and_stuff/tools/mingw/ucrt64/bin/../lib/gcc/x86_64-w64-mingw32/15.2.0/../../../../lib/libkernel32.a(libkernel32s01533.o)
                0x0000000140003cb8                VirtualProtect
 .text          0x0000000140003cc0        0x8 D:/code_and_stuff/tools/mingw/ucrt64/bin/../lib/gcc/x86_64-w64-mingw32/15.2.0/../../../../lib/libkernel32.a(libkernel32s01485.o)
                0x0000000140003cc0                TlsGetValue
 .text          0x0000000140003cc8        0x8 D:/code_and_stuff/tools/mingw/ucrt64/bin/../lib/gcc/x86_64-w64-mingw32/15.2.0/../../../../lib/libkernel32.a(libkernel32s01449.o)
                0x0000000140003cc8                Sleep
 .text          0x0000000140003cd0        0x8 D:/code_and_stuff/tools/mingw/ucrt64/bin/../lib/gcc/x86_64-w64-mingw32/15.2.0/../../../../lib/libkernel32.a(libkernel32s01433.o)
                0x0000000140003cd0                SetUnhandledExceptionFilter
 .text          0x0000000140003cd8        0x8 D:/code_and_stuff/tools/mingw/ucrt64/bin/../lib/gcc/x86_64-w64-mingw32/15.2.0/../../../../lib/libkernel32.a(libkernel32s01012.o)
                0x0000000140003cd8                LeaveCriticalSection
 .text          0x0000000140003ce0        0x8 D:/code_and_stuff/tools/mingw/ucrt64/bin/../lib/gcc/x86_64-w64-mingw32/15.2.0/../../../../lib/libkernel32.a(libkernel32s00918.o)
                0x0000000140003ce0                InitializeCriticalSection
 .text          0x0000000140003ce8        0x8 D:/code_and_stuff/tools/mingw/ucrt64/bin/../lib/gcc/x86_64-w64-mingw32/15.2.0/../../../../lib/libkernel32.a(libkernel32s00648.o)
                0x0000000140003ce8                GetLastError
 .text          0x0000000140003cf0        0x8 D:/code_and_stuff/tools/mingw/ucrt64/bin/../lib/gcc/x86_64-w64-mingw32/15.2.0/../../../../lib/libkernel32.a(libkernel32s00333.o)
                0x0000000140003cf0                EnterCriticalSection
 .text          0x0000000140003cf8        0x8 D:/code_and_stuff/tools/mingw/ucrt64/bin/../lib/gcc/x86_64-w64-mingw32/15.2.0/../../../../lib/libkernel32.a(libkernel32s00295.o)
                0x0000000140003cf8                DeleteCriticalSection
 .text          0x0000000140003d00        0x0 D:/code_and_stuff/tools/mingw/ucrt64/bin/../lib/gcc/x86_64-w64-mingw32/15.2.0/../../../../lib/libkernel32.a(libkernel32h.o)
 .text          0x0000000140003d00        0x0 D:/code_and_stuff/tools/mingw/ucrt64/bin/../lib/gcc/x86_64-w64-mingw32/15.2.0/../../../../lib/libkernel32.a(libkernel32t.o)
 .text          0x0000000140003d00        0x0 D:/code_and_stuff/tools/mingw/ucrt64/bin/../lib/gcc/x86_64-w64-mingw32/15.2.0/crtend.o
 *(SORT_BY_NAME(.text$*))
 *(.text.*)
 .text.startup  0x0000000140003d00       0x10 D:/code_and_stuff/tools/mingw/ucrt64/bin/../lib/gcc/x86_64-w64-mingw32/15.2.0/crtend.o
 *(.gnu.linkonce.t.*)
 *(.glue_7t)
 *(.glue_7)
                0x0000000140003d10                . = ALIGN (0x8)
 *(SORT_NONE(.fini))
 *(.gcc_exc)
                [!provide]                        PROVIDE (etext = .)
 *(.gcc_except_table)

.data           0x0000000140004000      0x200
                0x0000000140004000                __data_start__ = .
 *(.data)
 .data          0x0000000140004000        0x0 D:/code_and_stuff/tools/mingw/ucrt64/bin/../lib/gcc/x86_64-w64-mingw32/15.2.0/../../../../lib/crt2.o
 .data          0x0000000140004000        0x0 D:/code_and_stuff/tools/mingw/ucrt64/bin/../lib/gcc/x86_64-w64-mingw32/15.2.0/crtbegin.o
 .data          0x0000000140004000        0x0 intermediates/objects/cliArgs.o
 .data          0x0000000140004000        0x0 intermediates/objects/dsa.o
 .data          0x0000000140004000        0x0 intermediates/objects/morse.o
 .data          0x0000000140004000        0x0 intermediates/objects/structs.o
 .data          0x0000000140004000       0x10 D:/code_and_stuff/tools/mingw/ucrt64/bin/../lib/gcc/x86_64-w64-mingw32/15.2.0/../../../../lib/libmingw32.a(lib64_libmingw32_a-gccmain.o)
 .data          0x0000000140004010       0x10 D:/code_and_stuff/tools/mingw/ucrt64/bin/../lib/gcc/x86_64-w64-mingw32/15.2.0/../../../../lib/libmingw32.a(lib64_libmingw32_a-natstart.o)
                0x0000000140004010                __native_vcclrit_reason
                0x0000000140004014                __native_dllmain_reason
 .data          0x0000000140004020        0x0 D:/code_and_stuff/tools/mingw/ucrt64/bin/../lib/gcc/x86_64-w64-mingw32/15.2.0/../../../../lib/libmingw32.a(lib64_libmingw32_a-wildcard.o)
 .data          0x0000000140004020        0x0 D:/code_and_stuff/tools/mingw/ucrt64/bin/../lib/gcc/x86_64-w64-mingw32/15.2.0/../../../../lib/libmingw32.a(lib64_libmingw32_a-dllargv.o)
 .data          0x0000000140004020        0x0 D:/code_and_stuff/tools/mingw/ucrt64/bin/../lib/gcc/x86_64-w64-mingw32/15.2.0/../../../../lib/libmingw32.a(lib64_libmingw32_a-_newmode.o)
 .data          0x0000000140004020        0x0 D:/code_and_stuff/tools/mingw/ucrt64/bin/../lib/gcc/x86_64-w64-mingw32/15.2.0/../../../../lib/libmingw32.a(lib64_libmingw32_a-tlssup.o)
 .data          0x0000000140004020        0x0 D:/code_and_stuff/tools/mingw/ucrt64/bin/../lib/gcc/x86_64-w64-mingw32/15.2.0/../../../../lib/libmingw32.a(lib64_libmingw32_a-xncommod.o)
 .data          0x0000000140004020        0x0 D:/code_and_stuff/tools/mingw/ucrt64/bin/../lib/gcc/x86_64-w64-mingw32/15.2.0/../../../../lib/libmingw32.a(lib64_libmingw32_a-cinitexe.o)
 .data          0x0000000140004020        0x0 D:/code_and_stuff/tools/mingw/ucrt64/bin/../lib/gcc/x86_64-w64-mingw32/15.2.0/../../../../lib/libmingw32.a(lib64_libmingw32_a-merr.o)
 .data          0x0000000140004020       0x10 D:/code_and_stuff/tools/mingw/ucrt64/bin/../lib/gcc/x86_64-w64-mingw32/15.2.0/../../../../lib/libmingw32.a(lib64_libmingw32_a-xthdloc.o)
                0x0000000140004020                __globallocalestatus
 .data          0x0000000140004030        0x0 D:/code_and_stuff/tools/mingw/ucrt64/bin/../lib/gcc/x86_64-w64-mingw32/15.2.0/../../../../lib/libmingw32.a(lib64_libmingw32_a-mingw_helpers.o)
 .data          0x0000000140004030        0x0 D:/code_and_stuff/tools/mingw/ucrt64/bin/../lib/gcc/x86_64-w64-mingw32/15.2.0/../../../../lib/libmingw32.a(lib64_libmingw32_a-pseudo-reloc.o)
 .data          0x0000000140004030        0x0 D:/code_and_stuff/tools/mingw/ucrt64/bin/../lib/gcc/x86_64-w64-mingw32/15.2.0/../../../../lib/libmingw32.a(lib64_libmingw32_a-usermatherr.o)
 .data          0x0000000140004030        0x0 D:/code_and_stuff/tools/mingw/ucrt64/bin/../lib/gcc/x86_64-w64-mingw32/15.2.0/../../../../lib/libmingw32.a(lib64_libmingw32_a-xtxtmode.o)
 .data          0x0000000140004030        0x0 D:/code_and_stuff/tools/mingw/ucrt64/bin/../lib/gcc/x86_64-w64-mingw32/15.2.0/../../../../lib/libmingw32.a(lib64_libmingw32_a-crt_handler.o)
 .data          0x0000000140004030        0x0 D:/code_and_stuff/tools/mingw/ucrt64/bin/../lib/gcc/x86_64-w64-mingw32/15.2.0/../../../../lib/libmingw32.a(lib64_libmingw32_a-tlsthrd.o)
 .data          0x0000000140004030       0x10 D:/code_and_stuff/tools/mingw/ucrt64/bin/../lib/gcc/x86_64-w64-mingw32/15.2.0/../../../../lib/libmingw32.a(lib64_libmingw32_a-tlsmcrt.o)
                0x0000000140004030                _CRT_MT
 .data          0x0000000140004040        0x0 D:/code_and_stuff/tools/mingw/ucrt64/bin/../lib/gcc/x86_64-w64-mingw32/15.2.0/../../../../lib/libmingw32.a(lib64_libmingw32_a-CRT_fp10.o)
 .data          0x0000000140004040        0x0 D:/code_and_stuff/tools/mingw/ucrt64/bin/../lib/gcc/x86_64-w64-mingw32/15.2.0/../../../../lib/libmingw32.a(lib64_libmingw32_a-pseudo-reloc-list.o)
 .data          0x0000000140004040        0x0 D:/code_and_stuff/tools/mingw/ucrt64/bin/../lib/gcc/x86_64-w64-mingw32/15.2.0/../../../../lib/libmingw32.a(lib64_libmingw32_a-pesect.o)
 .data          0x0000000140004040        0x0 D:/code_and_stuff/tools/mingw/ucrt64/bin/../lib/gcc/x86_64-w64-mingw32/15.2.0/libgcc.a(_chkstk_ms.o)
 .data          0x0000000140004040        0x0 D:/code_and_stuff/tools/mingw/ucrt64/bin/../lib/gcc/x86_64-w64-mingw32/15.2.0/libgcc.a(_ctors.o)
 .data          0x0000000140004040       0x10 D:/code_and_stuff/tools/mingw/ucrt64/bin/../lib/gcc/x86_64-w64-mingw32/15.2.0/../../../../lib/libmingwex.a(lib64_libmingwex_a-mingw_matherr.o)
                0x0000000140004040                _MINGW_INSTALL_DEBUG_MATHERR
 .data          0x0000000140004050        0x0 D:/code_and_stuff/tools/mingw/ucrt64/bin/../lib/gcc/x86_64-w64-mingw32/15.2.0/../../../../lib/libmsvcrt.a(lib64_libucrt_extra_a-ucrt_vfprintf.o)
 .data          0x0000000140004050        0x0 D:/code_and_stuff/tools/mingw/ucrt64/bin/../lib/gcc/x86_64-w64-mingw32/15.2.0/../../../../lib/libmsvcrt.a(lib64_libucrt_extra_a-ucrt_scanf.o)
 .data          0x0000000140004050        0x0 D:/code_and_stuff/tools/mingw/ucrt64/bin/../lib/gcc/x86_64-w64-mingw32/15.2.0/../../../../lib/libmsvcrt.a(lib64_libucrt_extra_a-ucrt_printf.o)
 .data          0x0000000140004050        0x0 D:/code_and_stuff/tools/mingw/ucrt64/bin/../lib/gcc/x86_64-w64-mingw32/15.2.0/../../../../lib/libmsvcrt.a(lib64_libucrt_extra_a-ucrt_fprintf.o)
 .data          0x0000000140004050       0x10 D:/code_and_stuff/tools/mingw/ucrt64/bin/../lib/gcc/x86_64-w64-mingw32/15.2.0/../../../../lib/libmsvcrt.a(lib64_libucrt_extra_a-ucrt___local_stdio_scanf_options.o)
 .data          0x0000000140004060       0x10 D:/code_and_stuff/tools/mingw/ucrt64/bin/../lib/gcc/x86_64-w64-mingw32/15.2.0/../../../../lib/libmsvcrt.a(lib64_libucrt_extra_a-ucrt___local_stdio_printf_options.o)
 .data          0x0000000140004070       0x10 D:/code_and_stuff/tools/mingw/ucrt64/bin/../lib/gcc/x86_64-w64-mingw32/15.2.0/../../../../lib/libmsvcrt.a(lib64_libucrt_extra_a-__p___initenv.o)
                0x0000000140004070                __imp___p___initenv
 .data          0x0000000140004080       0x10 D:/code_and_stuff/tools/mingw/ucrt64/bin/../lib/gcc/x86_64-w64-mingw32/15.2.0/../../../../lib/libmsvcrt.a(lib64_libucrt_extra_a-ucrt_amsg_exit.o)
                0x0000000140004080                __imp__amsg_exit
 .data          0x0000000140004090       0x10 D:/code_and_stuff/tools/mingw/ucrt64/bin/../lib/gcc/x86_64-w64-mingw32/15.2.0/../../../../lib/libmsvcrt.a(lib64_libucrt_extra_a-ucrt__getmainargs.o)
                0x0000000140004090                __imp___getmainargs
 .data          0x00000001400040a0        0x0 D:/code_and_stuff/tools/mingw/ucrt64/bin/../lib/gcc/x86_64-w64-mingw32/15.2.0/../../../../lib/libmsvcrt.a(libapi-ms-win-crt-string-l1-1-0s00138.o)
 .data          0x00000001400040a0        0x0 D:/code_and_stuff/tools/mingw/ucrt64/bin/../lib/gcc/x86_64-w64-mingw32/15.2.0/../../../../lib/libmsvcrt.a(libapi-ms-win-crt-string-l1-1-0s00162.o)
 .data          0x00000001400040a0        0x0 D:/code_and_stuff/tools/mingw/ucrt64/bin/../lib/gcc/x86_64-w64-mingw32/15.2.0/../../../../lib/libmsvcrt.a(libapi-ms-win-crt-string-l1-1-0s00164.o)
 .data          0x00000001400040a0        0x0 D:/code_and_stuff/tools/mingw/ucrt64/bin/../lib/gcc/x86_64-w64-mingw32/15.2.0/../../../../lib/libmsvcrt.a(libapi-ms-win-crt-string-l1-1-0s00167.o)
 .data          0x00000001400040a0        0x0 D:/code_and_stuff/tools/mingw/ucrt64/bin/../lib/gcc/x86_64-w64-mingw32/15.2.0/../../../../lib/libmsvcrt.a(libapi-ms-win-crt-string-l1-1-0s00170.o)
 .data          0x00000001400040a0        0x0 D:/code_and_stuff/tools/mingw/ucrt64/bin/../lib/gcc/x86_64-w64-mingw32/15.2.0/../../../../lib/libmsvcrt.a(libapi-ms-win-crt-string-l1-1-0s00176.o)
 .data          0x00000001400040a0        0x0 D:/code_and_stuff/tools/mingw/ucrt64/bin/../lib/gcc/x86_64-w64-mingw32/15.2.0/../../../../lib/libmsvcrt.a(libapi-ms-win-crt-string-l1-1-0h.o)
 .data          0x00000001400040a0        0x0 D:/code_and_stuff/tools/mingw/ucrt64/bin/../lib/gcc/x86_64-w64-mingw32/15.2.0/../../../../lib/libmsvcrt.a(libapi-ms-win-crt-string-l1-1-0t.o)
 .data          0x00000001400040a0        0x0 D:/code_and_stuff/tools/mingw/ucrt64/bin/../lib/gcc/x86_64-w64-mingw32/15.2.0/../../../../lib/libmsvcrt.a(libapi-ms-win-crt-stdio-l1-1-0s00000.o)
 .data          0x00000001400040a0        0x0 D:/code_and_stuff/tools/mingw/ucrt64/bin/../lib/gcc/x86_64-w64-mingw32/15.2.0/../../../../lib/libmsvcrt.a(libapi-ms-win-crt-stdio-l1-1-0s00001.o)
 .data          0x00000001400040a0        0x0 D:/code_and_stuff/tools/mingw/ucrt64/bin/../lib/gcc/x86_64-w64-mingw32/15.2.0/../../../../lib/libmsvcrt.a(libapi-ms-win-crt-stdio-l1-1-0s00002.o)
 .data          0x00000001400040a0        0x0 D:/code_and_stuff/tools/mingw/ucrt64/bin/../lib/gcc/x86_64-w64-mingw32/15.2.0/../../../../lib/libmsvcrt.a(libapi-ms-win-crt-stdio-l1-1-0s00003.o)
 .data          0x00000001400040a0        0x0 D:/code_and_stuff/tools/mingw/ucrt64/bin/../lib/gcc/x86_64-w64-mingw32/15.2.0/../../../../lib/libmsvcrt.a(libapi-ms-win-crt-stdio-l1-1-0s00006.o)
 .data          0x00000001400040a0        0x0 D:/code_and_stuff/tools/mingw/ucrt64/bin/../lib/gcc/x86_64-w64-mingw32/15.2.0/../../../../lib/libmsvcrt.a(libapi-ms-win-crt-stdio-l1-1-0s00152.o)
 .data          0x00000001400040a0        0x0 D:/code_and_stuff/tools/mingw/ucrt64/bin/../lib/gcc/x86_64-w64-mingw32/15.2.0/../../../../lib/libmsvcrt.a(libapi-ms-win-crt-stdio-l1-1-0s00156.o)
 .data          0x00000001400040a0        0x0 D:/code_and_stuff/tools/mingw/ucrt64/bin/../lib/gcc/x86_64-w64-mingw32/15.2.0/../../../../lib/libmsvcrt.a(libapi-ms-win-crt-stdio-l1-1-0s00159.o)
 .data          0x00000001400040a0        0x0 D:/code_and_stuff/tools/mingw/ucrt64/bin/../lib/gcc/x86_64-w64-mingw32/15.2.0/../../../../lib/libmsvcrt.a(libapi-ms-win-crt-stdio-l1-1-0s00162.o)
 .data          0x00000001400040a0        0x0 D:/code_and_stuff/tools/mingw/ucrt64/bin/../lib/gcc/x86_64-w64-mingw32/15.2.0/../../../../lib/libmsvcrt.a(libapi-ms-win-crt-stdio-l1-1-0s00179.o)
 .data          0x00000001400040a0        0x0 D:/code_and_stuff/tools/mingw/ucrt64/bin/../lib/gcc/x86_64-w64-mingw32/15.2.0/../../../../lib/libmsvcrt.a(libapi-ms-win-crt-stdio-l1-1-0s00188.o)
 .data          0x00000001400040a0        0x0 D:/code_and_stuff/tools/mingw/ucrt64/bin/../lib/gcc/x86_64-w64-mingw32/15.2.0/../../../../lib/libmsvcrt.a(libapi-ms-win-crt-stdio-l1-1-0s00189.o)
 .data          0x00000001400040a0        0x0 D:/code_and_stuff/tools/mingw/ucrt64/bin/../lib/gcc/x86_64-w64-mingw32/15.2.0/../../../../lib/libmsvcrt.a(libapi-ms-win-crt-stdio-l1-1-0h.o)
 .data          0x00000001400040a0        0x0 D:/code_and_stuff/tools/mingw/ucrt64/bin/../lib/gcc/x86_64-w64-mingw32/15.2.0/../../../../lib/libmsvcrt.a(libapi-ms-win-crt-stdio-l1-1-0t.o)
 .data          0x00000001400040a0        0x0 D:/code_and_stuff/tools/mingw/ucrt64/bin/../lib/gcc/x86_64-w64-mingw32/15.2.0/../../../../lib/libmsvcrt.a(libapi-ms-win-crt-runtime-l1-1-0s00004.o)
 .data          0x00000001400040a0        0x0 D:/code_and_stuff/tools/mingw/ucrt64/bin/../lib/gcc/x86_64-w64-mingw32/15.2.0/../../../../lib/libmsvcrt.a(libapi-ms-win-crt-runtime-l1-1-0s00005.o)
 .data          0x00000001400040a0        0x0 D:/code_and_stuff/tools/mingw/ucrt64/bin/../lib/gcc/x86_64-w64-mingw32/15.2.0/../../../../lib/libmsvcrt.a(libapi-ms-win-crt-runtime-l1-1-0s00022.o)
 .data          0x00000001400040a0        0x0 D:/code_and_stuff/tools/mingw/ucrt64/bin/../lib/gcc/x86_64-w64-mingw32/15.2.0/../../../../lib/libmsvcrt.a(libapi-ms-win-crt-runtime-l1-1-0s00024.o)
 .data          0x00000001400040a0        0x0 D:/code_and_stuff/tools/mingw/ucrt64/bin/../lib/gcc/x86_64-w64-mingw32/15.2.0/../../../../lib/libmsvcrt.a(libapi-ms-win-crt-runtime-l1-1-0s00030.o)
 .data          0x00000001400040a0        0x0 D:/code_and_stuff/tools/mingw/ucrt64/bin/../lib/gcc/x86_64-w64-mingw32/15.2.0/../../../../lib/libmsvcrt.a(libapi-ms-win-crt-runtime-l1-1-0s00035.o)
 .data          0x00000001400040a0        0x0 D:/code_and_stuff/tools/mingw/ucrt64/bin/../lib/gcc/x86_64-w64-mingw32/15.2.0/../../../../lib/libmsvcrt.a(libapi-ms-win-crt-runtime-l1-1-0s00051.o)
 .data          0x00000001400040a0        0x0 D:/code_and_stuff/tools/mingw/ucrt64/bin/../lib/gcc/x86_64-w64-mingw32/15.2.0/../../../../lib/libmsvcrt.a(libapi-ms-win-crt-runtime-l1-1-0s00054.o)
 .data          0x00000001400040a0        0x0 D:/code_and_stuff/tools/mingw/ucrt64/bin/../lib/gcc/x86_64-w64-mingw32/15.2.0/../../../../lib/libmsvcrt.a(libapi-ms-win-crt-runtime-l1-1-0s00056.o)
 .data          0x00000001400040a0        0x0 D:/code_and_stuff/tools/mingw/ucrt64/bin/../lib/gcc/x86_64-w64-mingw32/15.2.0/../../../../lib/libmsvcrt.a(libapi-ms-win-crt-runtime-l1-1-0s00057.o)
 .data          0x00000001400040a0        0x0 D:/code_and_stuff/tools/mingw/ucrt64/bin/../lib/gcc/x86_64-w64-mingw32/15.2.0/../../../../lib/libmsvcrt.a(libapi-ms-win-crt-runtime-l1-1-0s00073.o)
 .data          0x00000001400040a0        0x0 D:/code_and_stuff/tools/mingw/ucrt64/bin/../lib/gcc/x86_64-w64-mingw32/15.2.0/../../../../lib/libmsvcrt.a(libapi-ms-win-crt-runtime-l1-1-0s00086.o)
 .data          0x00000001400040a0        0x0 D:/code_and_stuff/tools/mingw/ucrt64/bin/../lib/gcc/x86_64-w64-mingw32/15.2.0/../../../../lib/libmsvcrt.a(libapi-ms-win-crt-runtime-l1-1-0s00087.o)
 .data          0x00000001400040a0        0x0 D:/code_and_stuff/tools/mingw/ucrt64/bin/../lib/gcc/x86_64-w64-mingw32/15.2.0/../../../../lib/libmsvcrt.a(libapi-ms-win-crt-runtime-l1-1-0s00101.o)
 .data          0x00000001400040a0        0x0 D:/code_and_stuff/tools/mingw/ucrt64/bin/../lib/gcc/x86_64-w64-mingw32/15.2.0/../../../../lib/libmsvcrt.a(libapi-ms-win-crt-runtime-l1-1-0h.o)
 .data          0x00000001400040a0        0x0 D:/code_and_stuff/tools/mingw/ucrt64/bin/../lib/gcc/x86_64-w64-mingw32/15.2.0/../../../../lib/libmsvcrt.a(libapi-ms-win-crt-runtime-l1-1-0t.o)
 .data          0x00000001400040a0        0x0 D:/code_and_stuff/tools/mingw/ucrt64/bin/../lib/gcc/x86_64-w64-mingw32/15.2.0/../../../../lib/libmsvcrt.a(libapi-ms-win-crt-private-l1-1-0s00012.o)
 .data          0x00000001400040a0        0x0 D:/code_and_stuff/tools/mingw/ucrt64/bin/../lib/gcc/x86_64-w64-mingw32/15.2.0/../../../../lib/libmsvcrt.a(libapi-ms-win-crt-private-l1-1-0s01088.o)
 .data          0x00000001400040a0        0x0 D:/code_and_stuff/tools/mingw/ucrt64/bin/../lib/gcc/x86_64-w64-mingw32/15.2.0/../../../../lib/libmsvcrt.a(libapi-ms-win-crt-private-l1-1-0h.o)
 .data          0x00000001400040a0        0x0 D:/code_and_stuff/tools/mingw/ucrt64/bin/../lib/gcc/x86_64-w64-mingw32/15.2.0/../../../../lib/libmsvcrt.a(libapi-ms-win-crt-private-l1-1-0t.o)
 .data          0x00000001400040a0        0x0 D:/code_and_stuff/tools/mingw/ucrt64/bin/../lib/gcc/x86_64-w64-mingw32/15.2.0/../../../../lib/libmsvcrt.a(libapi-ms-win-crt-math-l1-1-0s00009.o)
 .data          0x00000001400040a0        0x0 D:/code_and_stuff/tools/mingw/ucrt64/bin/../lib/gcc/x86_64-w64-mingw32/15.2.0/../../../../lib/libmsvcrt.a(libapi-ms-win-crt-math-l1-1-0h.o)
 .data          0x00000001400040a0        0x0 D:/code_and_stuff/tools/mingw/ucrt64/bin/../lib/gcc/x86_64-w64-mingw32/15.2.0/../../../../lib/libmsvcrt.a(libapi-ms-win-crt-math-l1-1-0t.o)
 .data          0x00000001400040a0        0x0 D:/code_and_stuff/tools/mingw/ucrt64/bin/../lib/gcc/x86_64-w64-mingw32/15.2.0/../../../../lib/libmsvcrt.a(libapi-ms-win-crt-locale-l1-1-0s00009.o)
 .data          0x00000001400040a0        0x0 D:/code_and_stuff/tools/mingw/ucrt64/bin/../lib/gcc/x86_64-w64-mingw32/15.2.0/../../../../lib/libmsvcrt.a(libapi-ms-win-crt-locale-l1-1-0h.o)
 .data          0x00000001400040a0        0x0 D:/code_and_stuff/tools/mingw/ucrt64/bin/../lib/gcc/x86_64-w64-mingw32/15.2.0/../../../../lib/libmsvcrt.a(libapi-ms-win-crt-locale-l1-1-0t.o)
 .data          0x00000001400040a0        0x0 D:/code_and_stuff/tools/mingw/ucrt64/bin/../lib/gcc/x86_64-w64-mingw32/15.2.0/../../../../lib/libmsvcrt.a(libapi-ms-win-crt-heap-l1-1-0s00023.o)
 .data          0x00000001400040a0        0x0 D:/code_and_stuff/tools/mingw/ucrt64/bin/../lib/gcc/x86_64-w64-mingw32/15.2.0/../../../../lib/libmsvcrt.a(libapi-ms-win-crt-heap-l1-1-0s00024.o)
 .data          0x00000001400040a0        0x0 D:/code_and_stuff/tools/mingw/ucrt64/bin/../lib/gcc/x86_64-w64-mingw32/15.2.0/../../../../lib/libmsvcrt.a(libapi-ms-win-crt-heap-l1-1-0s00025.o)
 .data          0x00000001400040a0        0x0 D:/code_and_stuff/tools/mingw/ucrt64/bin/../lib/gcc/x86_64-w64-mingw32/15.2.0/../../../../lib/libmsvcrt.a(libapi-ms-win-crt-heap-l1-1-0s00026.o)
 .data          0x00000001400040a0        0x0 D:/code_and_stuff/tools/mingw/ucrt64/bin/../lib/gcc/x86_64-w64-mingw32/15.2.0/../../../../lib/libmsvcrt.a(libapi-ms-win-crt-heap-l1-1-0s00027.o)
 .data          0x00000001400040a0        0x0 D:/code_and_stuff/tools/mingw/ucrt64/bin/../lib/gcc/x86_64-w64-mingw32/15.2.0/../../../../lib/libmsvcrt.a(libapi-ms-win-crt-heap-l1-1-0h.o)
 .data          0x00000001400040a0        0x0 D:/code_and_stuff/tools/mingw/ucrt64/bin/../lib/gcc/x86_64-w64-mingw32/15.2.0/../../../../lib/libmsvcrt.a(libapi-ms-win-crt-heap-l1-1-0t.o)
 .data          0x00000001400040a0        0x0 D:/code_and_stuff/tools/mingw/ucrt64/bin/../lib/gcc/x86_64-w64-mingw32/15.2.0/../../../../lib/libmsvcrt.a(libapi-ms-win-crt-environment-l1-1-0s00000.o)
 .data          0x00000001400040a0        0x0 D:/code_and_stuff/tools/mingw/ucrt64/bin/../lib/gcc/x86_64-w64-mingw32/15.2.0/../../../../lib/libmsvcrt.a(libapi-ms-win-crt-environment-l1-1-0h.o)
 .data          0x00000001400040a0        0x0 D:/code_and_stuff/tools/mingw/ucrt64/bin/../lib/gcc/x86_64-w64-mingw32/15.2.0/../../../../lib/libmsvcrt.a(libapi-ms-win-crt-environment-l1-1-0t.o)
 .data          0x00000001400040a0       0x10 D:/code_and_stuff/tools/mingw/ucrt64/bin/../lib/gcc/x86_64-w64-mingw32/15.2.0/../../../../lib/libmsvcrt.a(lib64_libucrt_extra_a-__initenv.o)
                0x00000001400040a0                __imp___initenv
 .data          0x00000001400040b0        0x0 D:/code_and_stuff/tools/mingw/ucrt64/bin/../lib/gcc/x86_64-w64-mingw32/15.2.0/../../../../lib/libkernel32.a(libkernel32s01535.o)
 .data          0x00000001400040b0        0x0 D:/code_and_stuff/tools/mingw/ucrt64/bin/../lib/gcc/x86_64-w64-mingw32/15.2.0/../../../../lib/libkernel32.a(libkernel32s01533.o)
 .data          0x00000001400040b0        0x0 D:/code_and_stuff/tools/mingw/ucrt64/bin/../lib/gcc/x86_64-w64-mingw32/15.2.0/../../../../lib/libkernel32.a(libkernel32s01485.o)
 .data          0x00000001400040b0        0x0 D:/code_and_stuff/tools/mingw/ucrt64/bin/../lib/gcc/x86_64-w64-mingw32/15.2.0/../../../../lib/libkernel32.a(libkernel32s01449.o)
 .data          0x00000001400040b0        0x0 D:/code_and_stuff/tools/mingw/ucrt64/bin/../lib/gcc/x86_64-w64-mingw32/15.2.0/../../../../lib/libkernel32.a(libkernel32s01433.o)
 .data          0x00000001400040b0        0x0 D:/code_and_stuff/tools/mingw/ucrt64/bin/../lib/gcc/x86_64-w64-mingw32/15.2.0/../../../../lib/libkernel32.a(libkernel32s01012.o)
 .data          0x00000001400040b0        0x0 D:/code_and_stuff/tools/mingw/ucrt64/bin/../lib/gcc/x86_64-w64-mingw32/15.2.0/../../../../lib/libkernel32.a(libkernel32s00918.o)
 .data          0x00000001400040b0        0x0 D:/code_and_stuff/tools/mingw/ucrt64/bin/../lib/gcc/x86_64-w64-mingw32/15.2.0/../../../../lib/libkernel32.a(libkernel32s00648.o)
 .data          0x00000001400040b0        0x0 D:/code_and_stuff/tools/mingw/ucrt64/bin/../lib/gcc/x86_64-w64-mingw32/15.2.0/../../../../lib/libkernel32.a(libkernel32s00333.o)
 .data          0x00000001400040b0        0x0 D:/code_and_stuff/tools/mingw/ucrt64/bin/../lib/gcc/x86_64-w64-mingw32/15.2.0/../../../../lib/libkernel32.a(libkernel32s00295.o)
 .data          0x00000001400040b0        0x0 D:/code_and_stuff/tools/mingw/ucrt64/bin/../lib/gcc/x86_64-w64-mingw32/15.2.0/../../../../lib/libkernel32.a(libkernel32h.o)
 .data          0x00000001400040b0        0x0 D:/code_and_stuff/tools/mingw/ucrt64/bin/../lib/gcc/x86_64-w64-mingw32/15.2.0/../../../../lib/libkernel32.a(libkernel32t.o)
 .data          0x00000001400040b0        0x0 D:/code_and_stuff/tools/mingw/ucrt64/bin/../lib/gcc/x86_64-w64-mingw32/15.2.0/crtend.o
 *(.data2)
 *(SORT_BY_NAME(.data$*))
 *(.jcr)
                0x00000001400040b0                __data_end__ = .
 *(.data_cygwin_nocopy)

.rdata          0x0000000140005000     0x1000
 *(.rdata)
 .rdata         0x0000000140005000      0x190 intermediates/objects/cliArgs.o
 .rdata         0x0000000140005190      0x150 intermediates/objects/dsa.o
 .rdata         0x00000001400052e0       0x20 intermediates/objects/structs.o
 .rdata         0x0000000140005300       0x60 D:/code_and_stuff/tools/mingw/ucrt64/bin/../lib/gcc/x86_64-w64-mingw32/15.2.0/../../../../lib/libmingw32.a(lib64_libmingw32_a-tlssup.o)
                0x0000000140005300                __dyn_tls_init_callback
                0x0000000140005320                _tls_used
 .rdata         0x0000000140005360      0x140 D:/code_and_stuff/tools/mingw/ucrt64/bin/../lib/gcc/x86_64-w64-mingw32/15.2.0/../../../../lib/libmingw32.a(lib64_libmingw32_a-merr.o)
 .rdata         0x00000001400054a0      0x160 D:/code_and_stuff/tools/mingw/ucrt64/bin/../lib/gcc/x86_64-w64-mingw32/15.2.0/../../../../lib/libmingw32.a(lib64_libmingw32_a-pseudo-reloc.o)
 .rdata         0x0000000140005600       0x30 D:/code_and_stuff/tools/mingw/ucrt64/bin/../lib/gcc/x86_64-w64-mingw32/15.2.0/../../../../lib/libmingw32.a(lib64_libmingw32_a-crt_handler.o)
 .rdata         0x0000000140005630       0x20 D:/code_and_stuff/tools/mingw/ucrt64/bin/../lib/gcc/x86_64-w64-mingw32/15.2.0/../../../../lib/libmsvcrt.a(lib64_libucrt_extra_a-ucrt_amsg_exit.o)
 *(SORT_BY_NAME(.rdata$*))
 .rdata$.refptr._CRT_MT
                0x0000000140005650       0x10 D:/code_and_stuff/tools/mingw/ucrt64/bin/../lib/gcc/x86_64-w64-mingw32/15.2.0/../../../../lib/libmingw32.a(lib64_libmingw32_a-tlssup.o)
                0x0000000140005650                .refptr._CRT_MT
 .rdata$.refptr._MINGW_INSTALL_DEBUG_MATHERR
                0x0000000140005660       0x10 D:/code_and_stuff/tools/mingw/ucrt64/bin/../lib/gcc/x86_64-w64-mingw32/15.2.0/../../../../lib/crt2.o
                0x0000000140005660                .refptr._MINGW_INSTALL_DEBUG_MATHERR
 .rdata$.refptr.__CTOR_LIST__
                0x0000000140005670       0x10 D:/code_and_stuff/tools/mingw/ucrt64/bin/../lib/gcc/x86_64-w64-mingw32/15.2.0/../../../../lib/libmingw32.a(lib64_libmingw32_a-gccmain.o)
                0x0000000140005670                .refptr.__CTOR_LIST__
 .rdata$.refptr.__ImageBase
                0x0000000140005680       0x10 D:/code_and_stuff/tools/mingw/ucrt64/bin/../lib/gcc/x86_64-w64-mingw32/15.2.0/../../../../lib/crt2.o
                0x0000000140005680                .refptr.__ImageBase
 .rdata$.refptr.__RUNTIME_PSEUDO_RELOC_LIST_END__
                0x0000000140005690       0x10 D:/code_and_stuff/tools/mingw/ucrt64/bin/../lib/gcc/x86_64-w64-mingw32/15.2.0/../../../../lib/libmingw32.a(lib64_libmingw32_a-pseudo-reloc.o)
                0x0000000140005690                .refptr.__RUNTIME_PSEUDO_RELOC_LIST_END__
 .rdata$.refptr.__RUNTIME_PSEUDO_RELOC_LIST__
                0x00000001400056a0       0x10 D:/code_and_stuff/tools/mingw/ucrt64/bin/../lib/gcc/x86_64-w64-mingw32/15.2.0/../../../../lib/libmingw32.a(lib64_libmingw32_a-pseudo-reloc.o)
                0x00000001400056a0                .refptr.__RUNTIME_PSEUDO_RELOC_LIST__
 .rdata$.refptr.__dyn_tls_init_callback
                0x00000001400056b0       0x10 D:/code_and_stuff/tools/mingw/ucrt64/bin/../lib/gcc/x86_64-w64-mingw32/15.2.0/../../../../lib/crt2.o
                0x00000001400056b0                .refptr.__dyn_tls_init_callback
 .rdata$.refptr.__globallocalestatus
                0x00000001400056c0       0x10 D:/code_and_stuff/tools/mingw/ucrt64/bin/../lib/gcc/x86_64-w64-mingw32/15.2.0/../../../../lib/crt2.o
                0x00000001400056c0                .refptr.__globallocalestatus
 .rdata$.refptr.__imp___initenv
                0x00000001400056d0       0x10 D:/code_and_stuff/tools/mingw/ucrt64/bin/../lib/gcc/x86_64-w64-mingw32/15.2.0/../../../../lib/libmsvcrt.a(lib64_libucrt_extra_a-__p___initenv.o)
                0x00000001400056d0                .refptr.__imp___initenv
 .rdata$.refptr.__mingw_app_type
                0x00000001400056e0       0x10 D:/code_and_stuff/tools/mingw/ucrt64/bin/../lib/gcc/x86_64-w64-mingw32/15.2.0/../../../../lib/crt2.o
                0x00000001400056e0                .refptr.__mingw_app_type
 .rdata$.refptr.__mingw_initltsdrot_force
                0x00000001400056f0       0x10 D:/code_and_stuff/tools/mingw/ucrt64/bin/../lib/gcc/x86_64-w64-mingw32/15.2.0/../../../../lib/crt2.o
                0x00000001400056f0                .refptr.__mingw_initltsdrot_force
 .rdata$.refptr.__mingw_initltsdyn_force
                0x0000000140005700       0x10 D:/code_and_stuff/tools/mingw/ucrt64/bin/../lib/gcc/x86_64-w64-mingw32/15.2.0/../../../../lib/crt2.o
                0x0000000140005700                .refptr.__mingw_initltsdyn_force
 .rdata$.refptr.__mingw_initltssuo_force
                0x0000000140005710       0x10 D:/code_and_stuff/tools/mingw/ucrt64/bin/../lib/gcc/x86_64-w64-mingw32/15.2.0/../../../../lib/crt2.o
                0x0000000140005710                .refptr.__mingw_initltssuo_force
 .rdata$.refptr.__mingw_oldexcpt_handler
                0x0000000140005720       0x10 D:/code_and_stuff/tools/mingw/ucrt64/bin/../lib/gcc/x86_64-w64-mingw32/15.2.0/../../../../lib/crt2.o
                0x0000000140005720                .refptr.__mingw_oldexcpt_handler
 .rdata$.refptr.__native_startup_lock
                0x0000000140005730       0x10 D:/code_and_stuff/tools/mingw/ucrt64/bin/../lib/gcc/x86_64-w64-mingw32/15.2.0/../../../../lib/crt2.o
                0x0000000140005730                .refptr.__native_startup_lock
 .rdata$.refptr.__native_startup_state
                0x0000000140005740       0x10 D:/code_and_stuff/tools/mingw/ucrt64/bin/../lib/gcc/x86_64-w64-mingw32/15.2.0/../../../../lib/crt2.o
                0x0000000140005740                .refptr.__native_startup_state
 .rdata$.refptr.__xc_a
                0x0000000140005750       0x10 D:/code_and_stuff/tools/mingw/ucrt64/bin/../lib/gcc/x86_64-w64-mingw32/15.2.0/../../../../lib/crt2.o
                0x0000000140005750                .refptr.__xc_a
 .rdata$.refptr.__xc_z
                0x0000000140005760       0x10 D:/code_and_stuff/tools/mingw/ucrt64/bin/../lib/gcc/x86_64-w64-mingw32/15.2.0/../../../../lib/crt2.o
                0x0000000140005760                .refptr.__xc_z
 .rdata$.refptr.__xi_a
                0x0000000140005770       0x10 D:/code_and_stuff/tools/mingw/ucrt64/bin/../lib/gcc/x86_64-w64-mingw32/15.2.0/../../../../lib/crt2.o
                0x0000000140005770                .refptr.__xi_a
 .rdata$.refptr.__xi_z
                0x0000000140005780       0x10 D:/code_and_stuff/tools/mingw/ucrt64/bin/../lib/gcc/x86_64-w64-mingw32/15.2.0/../../../../lib/crt2.o
                0x0000000140005780                .refptr.__xi_z
 .rdata$.refptr._commode
                0x0000000140005790       0x10 D:/code_and_stuff/tools/mingw/ucrt64/bin/../lib/gcc/x86_64-w64-mingw32/15.2.0/../../../../lib/crt2.o
                0x0000000140005790                .refptr._commode
 .rdata$.refptr._dowildcard
                0x00000001400057a0       0x10 D:/code_and_stuff/tools/mingw/ucrt64/bin/../lib/gcc/x86_64-w64-mingw32/15.2.0/../../../../lib/crt2.o
                0x00000001400057a0                .refptr._dowildcard
 .rdata$.refptr._fmode
                0x00000001400057b0       0x10 D:/code_and_stuff/tools/mingw/ucrt64/bin/../lib/gcc/x86_64-w64-mingw32/15.2.0/../../../../lib/crt2.o
                0x00000001400057b0                .refptr._fmode
 .rdata$.refptr._gnu_exception_handler
                0x00000001400057c0       0x10 D:/code_and_stuff/tools/mingw/ucrt64/bin/../lib/gcc/x86_64-w64-mingw32/15.2.0/../../../../lib/crt2.o
                0x00000001400057c0                .refptr._gnu_exception_handler
 .rdata$.refptr._matherr
                0x00000001400057d0       0x10 D:/code_and_stuff/tools/mingw/ucrt64/bin/../lib/gcc/x86_64-w64-mingw32/15.2.0/../../../../lib/crt2.o
                0x00000001400057d0                .refptr._matherr
 .rdata$.refptr._newmode
                0x00000001400057e0       0x10 D:/code_and_stuff/tools/mingw/ucrt64/bin/../lib/gcc/x86_64-w64-mingw32/15.2.0/../../../../lib/crt2.o
                0x00000001400057e0                .refptr._newmode
 .rdata$.refptr.treeHead
                0x00000001400057f0       0x10 intermediates/objects/cliArgs.o
                0x00000001400057f0                .refptr.treeHead
 .rdata$zzz     0x0000000140005800       0x30 D:/code_and_stuff/tools/mingw/ucrt64/bin/../lib/gcc/x86_64-w64-mingw32/15.2.0/../../../../lib/crt2.o
 .rdata$zzz     0x0000000140005830       0x30 D:/code_and_stuff/tools/mingw/ucrt64/bin/../lib/gcc/x86_64-w64-mingw32/15.2.0/crtbegin.o
 .rdata$zzz     0x0000000140005860       0x30 intermediates/objects/cliArgs.o
 .rdata$zzz     0x0000000140005890       0x30 intermediates/objects/dsa.o
 .rdata$zzz     0x00000001400058c0       0x30 intermediates/objects/morse.o
 .rdata$zzz     0x00000001400058f0       0x30 intermediates/objects/structs.o
 .rdata$zzz     0x0000000140005920       0x30 D:/code_and_stuff/tools/mingw/ucrt64/bin/../lib/gcc/x86_64-w64-mingw32/15.2.0/../../../../lib/libmingw32.a(lib64_libmingw32_a-gccmain.o)
 .rdata$zzz     0x0000000140005950       0x30 D:/code_and_stuff/tools/mingw/ucrt64/bin/../lib/gcc/x86_64-w64-mingw32/15.2.0/../../../../lib/libmingw32.a(lib64_libmingw32_a-natstart.o)
 .rdata$zzz     0x0000000140005980       0x30 D:/code_and_stuff/tools/mingw/ucrt64/bin/../lib/gcc/x86_64-w64-mingw32/15.2.0/../../../../lib/libmingw32.a(lib64_libmingw32_a-wildcard.o)
 .rdata$zzz     0x00000001400059b0       0x30 D:/code_and_stuff/tools/mingw/ucrt64/bin/../lib/gcc/x86_64-w64-mingw32/15.2.0/../../../../lib/libmingw32.a(lib64_libmingw32_a-dllargv.o)
 .rdata$zzz     0x00000001400059e0       0x30 D:/code_and_stuff/tools/mingw/ucrt64/bin/../lib/gcc/x86_64-w64-mingw32/15.2.0/../../../../lib/libmingw32.a(lib64_libmingw32_a-_newmode.o)
 .rdata$zzz     0x0000000140005a10       0x30 D:/code_and_stuff/tools/mingw/ucrt64/bin/../lib/gcc/x86_64-w64-mingw32/15.2.0/../../../../lib/libmingw32.a(lib64_libmingw32_a-tlssup.o)
 .rdata$zzz     0x0000000140005a40       0x30 D:/code_and_stuff/tools/mingw/ucrt64/bin/../lib/gcc/x86_64-w64-mingw32/15.2.0/../../../../lib/libmingw32.a(lib64_libmingw32_a-xncommod.o)
 .rdata$zzz     0x0000000140005a70       0x30 D:/code_and_stuff/tools/mingw/ucrt64/bin/../lib/gcc/x86_64-w64-mingw32/15.2.0/../../../../lib/libmingw32.a(lib64_libmingw32_a-cinitexe.o)
 .rdata$zzz     0x0000000140005aa0       0x30 D:/code_and_stuff/tools/mingw/ucrt64/bin/../lib/gcc/x86_64-w64-mingw32/15.2.0/../../../../lib/libmingw32.a(lib64_libmingw32_a-merr.o)
 .rdata$zzz     0x0000000140005ad0       0x30 D:/code_and_stuff/tools/mingw/ucrt64/bin/../lib/gcc/x86_64-w64-mingw32/15.2.0/../../../../lib/libmingw32.a(lib64_libmingw32_a-xthdloc.o)
 .rdata$zzz     0x0000000140005b00       0x30 D:/code_and_stuff/tools/mingw/ucrt64/bin/../lib/gcc/x86_64-w64-mingw32/15.2.0/../../../../lib/libmingw32.a(lib64_libmingw32_a-mingw_helpers.o)
 .rdata$zzz     0x0000000140005b30       0x30 D:/code_and_stuff/tools/mingw/ucrt64/bin/../lib/gcc/x86_64-w64-mingw32/15.2.0/../../../../lib/libmingw32.a(lib64_libmingw32_a-pseudo-reloc.o)
 .rdata$zzz     0x0000000140005b60       0x30 D:/code_and_stuff/tools/mingw/ucrt64/bin/../lib/gcc/x86_64-w64-mingw32/15.2.0/../../../../lib/libmingw32.a(lib64_libmingw32_a-usermatherr.o)
 .rdata$zzz     0x0000000140005b90       0x30 D:/code_and_stuff/tools/mingw/ucrt64/bin/../lib/gcc/x86_64-w64-mingw32/15.2.0/../../../../lib/libmingw32.a(lib64_libmingw32_a-xtxtmode.o)
 .rdata$zzz     0x0000000140005bc0       0x30 D:/code_and_stuff/tools/mingw/ucrt64/bin/../lib/gcc/x86_64-w64-mingw32/15.2.0/../../../../lib/libmingw32.a(lib64_libmingw32_a-crt_handler.o)
 .rdata$zzz     0x0000000140005bf0       0x30 D:/code_and_stuff/tools/mingw/ucrt64/bin/../lib/gcc/x86_64-w64-mingw32/15.2.0/../../../../lib/libmingw32.a(lib64_libmingw32_a-tlsthrd.o)
 .rdata$zzz     0x0000000140005c20       0x30 D:/code_and_stuff/tools/mingw/ucrt64/bin/../lib/gcc/x86_64-w64-mingw32/15.2.0/../../../../lib/libmingw32.a(lib64_libmingw32_a-tlsmcrt.o)
 .rdata$zzz     0x0000000140005c50       0x30 D:/code_and_stuff/tools/mingw/ucrt64/bin/../lib/gcc/x86_64-w64-mingw32/15.2.0/../../../../lib/libmingw32.a(lib64_libmingw32_a-CRT_fp10.o)
 .rdata$zzz     0x0000000140005c80       0x30 D:/code_and_stuff/tools/mingw/ucrt64/bin/../lib/gcc/x86_64-w64-mingw32/15.2.0/../../../../lib/libmingw32.a(lib64_libmingw32_a-pseudo-reloc-list.o)
 .rdata$zzz     0x0000000140005cb0       0x30 D:/code_and_stuff/tools/mingw/ucrt64/bin/../lib/gcc/x86_64-w64-mingw32/15.2.0/../../../../lib/libmingw32.a(lib64_libmingw32_a-pesect.o)
 .rdata$zzz     0x0000000140005ce0       0x30 D:/code_and_stuff/tools/mingw/ucrt64/bin/../lib/gcc/x86_64-w64-mingw32/15.2.0/libgcc.a(_ctors.o)
 .rdata$zzz     0x0000000140005d10       0x30 D:/code_and_stuff/tools/mingw/ucrt64/bin/../lib/gcc/x86_64-w64-mingw32/15.2.0/../../../../lib/libmingwex.a(lib64_libmingwex_a-mingw_matherr.o)
 .rdata$zzz     0x0000000140005d40       0x30 D:/code_and_stuff/tools/mingw/ucrt64/bin/../lib/gcc/x86_64-w64-mingw32/15.2.0/../../../../lib/libmsvcrt.a(lib64_libucrt_extra_a-ucrt_vfprintf.o)
 .rdata$zzz     0x0000000140005d70       0x30 D:/code_and_stuff/tools/mingw/ucrt64/bin/../lib/gcc/x86_64-w64-mingw32/15.2.0/../../../../lib/libmsvcrt.a(lib64_libucrt_extra_a-ucrt_scanf.o)
 .rdata$zzz     0x0000000140005da0       0x30 D:/code_and_stuff/tools/mingw/ucrt64/bin/../lib/gcc/x86_64-w64-mingw32/15.2.0/../../../../lib/libmsvcrt.a(lib64_libucrt_extra_a-ucrt_printf.o)
 .rdata$zzz     0x0000000140005dd0       0x30 D:/code_and_stuff/tools/mingw/ucrt64/bin/../lib/gcc/x86_64-w64-mingw32/15.2.0/../../../../lib/libmsvcrt.a(lib64_libucrt_extra_a-ucrt_fprintf.o)
 .rdata$zzz     0x0000000140005e00       0x30 D:/code_and_stuff/tools/mingw/ucrt64/bin/../lib/gcc/x86_64-w64-mingw32/15.2.0/../../../../lib/libmsvcrt.a(lib64_libucrt_extra_a-ucrt___local_stdio_scanf_options.o)
 .rdata$zzz     0x0000000140005e30       0x30 D:/code_and_stuff/tools/mingw/ucrt64/bin/../lib/gcc/x86_64-w64-mingw32/15.2.0/../../../../lib/libmsvcrt.a(lib64_libucrt_extra_a-ucrt___local_stdio_printf_options.o)
 .rdata$zzz     0x0000000140005e60       0x30 D:/code_and_stuff/tools/mingw/ucrt64/bin/../lib/gcc/x86_64-w64-mingw32/15.2.0/../../../../lib/libmsvcrt.a(lib64_libucrt_extra_a-__p___initenv.o)
 .rdata$zzz     0x0000000140005e90       0x30 D:/code_and_stuff/tools/mingw/ucrt64/bin/../lib/gcc/x86_64-w64-mingw32/15.2.0/../../../../lib/libmsvcrt.a(lib64_libucrt_extra_a-ucrt_amsg_exit.o)
 .rdata$zzz     0x0000000140005ec0       0x30 D:/code_and_stuff/tools/mingw/ucrt64/bin/../lib/gcc/x86_64-w64-mingw32/15.2.0/../../../../lib/libmsvcrt.a(lib64_libucrt_extra_a-ucrt__getmainargs.o)
 .rdata$zzz     0x0000000140005ef0       0x30 D:/code_and_stuff/tools/mingw/ucrt64/bin/../lib/gcc/x86_64-w64-mingw32/15.2.0/../../../../lib/libmsvcrt.a(lib64_libucrt_extra_a-__initenv.o)
 .rdata$zzz     0x0000000140005f20       0x30 D:/code_and_stuff/tools/mingw/ucrt64/bin/../lib/gcc/x86_64-w64-mingw32/15.2.0/crtend.o
                0x0000000140005f50                . = ALIGN (0x4)
                0x0000000140005f50                __rt_psrelocs_start = .
 *(.rdata_runtime_pseudo_reloc)
                0x0000000140005f50                __rt_psrelocs_end = .
                0x0000000140005f50                . = ALIGN (0x8)
                0x0000000140005f50                __DELAY_IMPORT_DIRECTORY_start__ = .
 SORT_BY_NAME(*)(.didat$2)
 SORT_BY_NAME(*)(.didat$3)
                0x0000000140005f50                __DELAY_IMPORT_DIRECTORY_end__ = .
                0x0000000140005f50                . = (. + (__DELAY_IMPORT_DIRECTORY_end__ - __DELAY_IMPORT_DIRECTORY_start__)?0x20:0x0)
                0x0000000140005f50                . = ALIGN (0x8)
 SORT_BY_NAME(*)(.didat$4)
 SORT_BY_NAME(*)(.didat$6)
 SORT_BY_NAME(*)(.didat$7)
                0x0000000140005f50                . = ALIGN (0x8)
                0x0000000140005f50                ___CTOR_LIST__ = .
                0x0000000140005f50                __CTOR_LIST__ = .
                0x0000000140005f50        0x4 LONG 0xffffffffffffffff
                0x0000000140005f54        0x4 LONG 0xffffffffffffffff
 *(.ctors)
 *(.ctor)
 *(SORT_BY_NAME(.ctors.*))
 .ctors.65535   0x0000000140005f58        0x8 D:/code_and_stuff/tools/mingw/ucrt64/bin/../lib/gcc/x86_64-w64-mingw32/15.2.0/crtend.o
                0x0000000140005f60        0x4 LONG 0x0
                0x0000000140005f64        0x4 LONG 0x0
                0x0000000140005f68                ___DTOR_LIST__ = .
                0x0000000140005f68                __DTOR_LIST__ = .
                0x0000000140005f68        0x4 LONG 0xffffffffffffffff
                0x0000000140005f6c        0x4 LONG 0xffffffffffffffff
 *(.dtors)
 *(.dtor)
 *(SORT_BY_NAME(.dtors.*))
                0x0000000140005f70        0x4 LONG 0x0
                0x0000000140005f74        0x4 LONG 0x0
                0x0000000140005f78                ___crt_xc_start__ = .
 *(SORT_BY_NAME(.CRT$XC*))
 .CRT$XCA       0x0000000140005f78        0x8 D:/code_and_stuff/tools/mingw/ucrt64/bin/../lib/gcc/x86_64-w64-mingw32/15.2.0/../../../../lib/libmingw32.a(lib64_libmingw32_a-cinitexe.o)
                0x0000000140005f78                __xc_a
 .CRT$XCZ       0x0000000140005f80        0x8 D:/code_and_stuff/tools/mingw/ucrt64/bin/../lib/gcc/x86_64-w64-mingw32/15.2.0/../../../../lib/libmingw32.a(lib64_libmingw32_a-cinitexe.o)
                0x0000000140005f80                __xc_z
                0x0000000140005f88                ___crt_xc_end__ = .
                0x0000000140005f88                ___crt_xi_start__ = .
 *(SORT_BY_NAME(.CRT$XI*))
 .CRT$XIA       0x0000000140005f88        0x8 D:/code_and_stuff/tools/mingw/ucrt64/bin/../lib/gcc/x86_64-w64-mingw32/15.2.0/../../../../lib/libmingw32.a(lib64_libmingw32_a-cinitexe.o)
                0x0000000140005f88                __xi_a
 .CRT$XIZ       0x0000000140005f90        0x8 D:/code_and_stuff/tools/mingw/ucrt64/bin/../lib/gcc/x86_64-w64-mingw32/15.2.0/../../../../lib/libmingw32.a(lib64_libmingw32_a-cinitexe.o)
                0x0000000140005f90                __xi_z
                0x0000000140005f98                ___crt_xi_end__ = .
                0x0000000140005f98                ___crt_xl_start__ = .
 *(SORT_BY_NAME(.CRT$XL*))
 .CRT$XLA       0x0000000140005f98        0x8 D:/code_and_stuff/tools/mingw/ucrt64/bin/../lib/gcc/x86_64-w64-mingw32/15.2.0/../../../../lib/libmingw32.a(lib64_libmingw32_a-tlssup.o)
                0x0000000140005f98                __xl_a
 .CRT$XLC       0x0000000140005fa0        0x8 D:/code_and_stuff/tools/mingw/ucrt64/bin/../lib/gcc/x86_64-w64-mingw32/15.2.0/../../../../lib/libmingw32.a(lib64_libmingw32_a-tlssup.o)
                0x0000000140005fa0                __xl_c
 .CRT$XLD       0x0000000140005fa8        0x8 D:/code_and_stuff/tools/mingw/ucrt64/bin/../lib/gcc/x86_64-w64-mingw32/15.2.0/../../../../lib/libmingw32.a(lib64_libmingw32_a-tlssup.o)
                0x0000000140005fa8                __xl_d
 .CRT$XLZ       0x0000000140005fb0        0x8 D:/code_and_stuff/tools/mingw/ucrt64/bin/../lib/gcc/x86_64-w64-mingw32/15.2.0/../../../../lib/libmingw32.a(lib64_libmingw32_a-tlssup.o)
                0x0000000140005fb0                __xl_z
                0x0000000140005fb8                ___crt_xp_start__ = .
 *(SORT_BY_NAME(.CRT$XP*))
                0x0000000140005fb8                ___crt_xp_end__ = .
                0x0000000140005fb8                ___crt_xt_start__ = .
 *(SORT_BY_NAME(.CRT$XT*))
                0x0000000140005fb8                ___crt_xt_end__ = .
                0x0000000140005fb8                ___crt_xd_start__ = .
 *(SORT_BY_NAME(.CRT$XD*))
 .CRT$XDA       0x0000000140005fb8        0x8 D:/code_and_stuff/tools/mingw/ucrt64/bin/../lib/gcc/x86_64-w64-mingw32/15.2.0/../../../../lib/libmingw32.a(lib64_libmingw32_a-tlssup.o)
 .CRT$XDZ       0x0000000140005fc0        0x8 D:/code_and_stuff/tools/mingw/ucrt64/bin/../lib/gcc/x86_64-w64-mingw32/15.2.0/../../../../lib/libmingw32.a(lib64_libmingw32_a-tlssup.o)
                0x0000000140005fc8                ___crt_xd_end__ = .
                0x0000000140005f50                ___RUNTIME_PSEUDO_RELOC_LIST_END__ = __rt_psrelocs_end
                0x0000000140005f50                __RUNTIME_PSEUDO_RELOC_LIST_END__ = __rt_psrelocs_end
                0x0000000140005f50                ___RUNTIME_PSEUDO_RELOC_LIST__ = __rt_psrelocs_start
                0x0000000140005f50                __RUNTIME_PSEUDO_RELOC_LIST__ = __rt_psrelocs_start

.eh_frame
 *(.eh_frame*)

.pdata          0x0000000140006000      0x400
 *(.pdata*)
 .pdata         0x0000000140006000       0x3c D:/code_and_stuff/tools/mingw/ucrt64/bin/../lib/gcc/x86_64-w64-mingw32/15.2.0/../../../../lib/crt2.o
 .pdata         0x000000014000603c       0x18 D:/code_and_stuff/tools/mingw/ucrt64/bin/../lib/gcc/x86_64-w64-mingw32/15.2.0/crtbegin.o
 .pdata         0x0000000140006054       0x30 intermediates/objects/cliArgs.o
 .pdata         0x0000000140006084       0xd8 intermediates/objects/dsa.o
 .pdata         0x000000014000615c       0x24 intermediates/objects/morse.o
 .pdata         0x0000000140006180       0x18 intermediates/objects/structs.o
 .pdata         0x0000000140006198       0x24 D:/code_and_stuff/tools/mingw/ucrt64/bin/../lib/gcc/x86_64-w64-mingw32/15.2.0/../../../../lib/libmingw32.a(lib64_libmingw32_a-gccmain.o)
 .pdata         0x00000001400061bc        0xc D:/code_and_stuff/tools/mingw/ucrt64/bin/../lib/gcc/x86_64-w64-mingw32/15.2.0/../../../../lib/libmingw32.a(lib64_libmingw32_a-dllargv.o)
 .pdata         0x00000001400061c8       0x24 D:/code_and_stuff/tools/mingw/ucrt64/bin/../lib/gcc/x86_64-w64-mingw32/15.2.0/../../../../lib/libmingw32.a(lib64_libmingw32_a-tlssup.o)
 .pdata         0x00000001400061ec        0xc D:/code_and_stuff/tools/mingw/ucrt64/bin/../lib/gcc/x86_64-w64-mingw32/15.2.0/../../../../lib/libmingw32.a(lib64_libmingw32_a-merr.o)
 .pdata         0x00000001400061f8       0x24 D:/code_and_stuff/tools/mingw/ucrt64/bin/../lib/gcc/x86_64-w64-mingw32/15.2.0/../../../../lib/libmingw32.a(lib64_libmingw32_a-pseudo-reloc.o)
 .pdata         0x000000014000621c       0x18 D:/code_and_stuff/tools/mingw/ucrt64/bin/../lib/gcc/x86_64-w64-mingw32/15.2.0/../../../../lib/libmingw32.a(lib64_libmingw32_a-usermatherr.o)
 .pdata         0x0000000140006234        0xc D:/code_and_stuff/tools/mingw/ucrt64/bin/../lib/gcc/x86_64-w64-mingw32/15.2.0/../../../../lib/libmingw32.a(lib64_libmingw32_a-crt_handler.o)
 .pdata         0x0000000140006240       0x30 D:/code_and_stuff/tools/mingw/ucrt64/bin/../lib/gcc/x86_64-w64-mingw32/15.2.0/../../../../lib/libmingw32.a(lib64_libmingw32_a-tlsthrd.o)
 .pdata         0x0000000140006270        0xc D:/code_and_stuff/tools/mingw/ucrt64/bin/../lib/gcc/x86_64-w64-mingw32/15.2.0/../../../../lib/libmingw32.a(lib64_libmingw32_a-CRT_fp10.o)
 .pdata         0x000000014000627c       0x6c D:/code_and_stuff/tools/mingw/ucrt64/bin/../lib/gcc/x86_64-w64-mingw32/15.2.0/../../../../lib/libmingw32.a(lib64_libmingw32_a-pesect.o)
 .pdata         0x00000001400062e8        0xc D:/code_and_stuff/tools/mingw/ucrt64/bin/../lib/gcc/x86_64-w64-mingw32/15.2.0/../../../../lib/libmsvcrt.a(lib64_libucrt_extra_a-ucrt_vfprintf.o)
 .pdata         0x00000001400062f4        0xc D:/code_and_stuff/tools/mingw/ucrt64/bin/../lib/gcc/x86_64-w64-mingw32/15.2.0/../../../../lib/libmsvcrt.a(lib64_libucrt_extra_a-ucrt_scanf.o)
 .pdata         0x0000000140006300        0xc D:/code_and_stuff/tools/mingw/ucrt64/bin/../lib/gcc/x86_64-w64-mingw32/15.2.0/../../../../lib/libmsvcrt.a(lib64_libucrt_extra_a-ucrt_printf.o)
 .pdata         0x000000014000630c        0xc D:/code_and_stuff/tools/mingw/ucrt64/bin/../lib/gcc/x86_64-w64-mingw32/15.2.0/../../../../lib/libmsvcrt.a(lib64_libucrt_extra_a-ucrt_fprintf.o)
 .pdata         0x0000000140006318        0xc D:/code_and_stuff/tools/mingw/ucrt64/bin/../lib/gcc/x86_64-w64-mingw32/15.2.0/../../../../lib/libmsvcrt.a(lib64_libucrt_extra_a-ucrt___local_stdio_scanf_options.o)
 .pdata         0x0000000140006324        0xc D:/code_and_stuff/tools/mingw/ucrt64/bin/../lib/gcc/x86_64-w64-mingw32/15.2.0/../../../../lib/libmsvcrt.a(lib64_libucrt_extra_a-ucrt___local_stdio_printf_options.o)
 .pdata         0x0000000140006330        0xc D:/code_and_stuff/tools/mingw/ucrt64/bin/../lib/gcc/x86_64-w64-mingw32/15.2.0/../../../../lib/libmsvcrt.a(lib64_libucrt_extra_a-__p___initenv.o)
 .pdata         0x000000014000633c        0xc D:/code_and_stuff/tools/mingw/ucrt64/bin/../lib/gcc/x86_64-w64-mingw32/15.2.0/../../../../lib/libmsvcrt.a(lib64_libucrt_extra_a-ucrt_amsg_exit.o)
 .pdata         0x0000000140006348        0xc D:/code_and_stuff/tools/mingw/ucrt64/bin/../lib/gcc/x86_64-w64-mingw32/15.2.0/../../../../lib/libmsvcrt.a(lib64_libucrt_extra_a-ucrt__getmainargs.o)
 .pdata.startup
                0x0000000140006354        0xc D:/code_and_stuff/tools/mingw/ucrt64/bin/../lib/gcc/x86_64-w64-mingw32/15.2.0/crtend.o

.xdata          0x0000000140007000      0x400
 *(.xdata*)
 .xdata         0x0000000140007000       0x60 D:/code_and_stuff/tools/mingw/ucrt64/bin/../lib/gcc/x86_64-w64-mingw32/15.2.0/../../../../lib/crt2.o
 .xdata         0x0000000140007060        0x8 D:/code_and_stuff/tools/mingw/ucrt64/bin/../lib/gcc/x86_64-w64-mingw32/15.2.0/crtbegin.o
 .xdata         0x0000000140007068       0x30 intermediates/objects/cliArgs.o
 .xdata         0x0000000140007098       0xd4 intermediates/objects/dsa.o
 .xdata         0x000000014000716c       0x24 intermediates/objects/morse.o
 .xdata         0x0000000140007190       0x18 intermediates/objects/structs.o
 .xdata         0x00000001400071a8       0x18 D:/code_and_stuff/tools/mingw/ucrt64/bin/../lib/gcc/x86_64-w64-mingw32/15.2.0/../../../../lib/libmingw32.a(lib64_libmingw32_a-gccmain.o)
 .xdata         0x00000001400071c0        0x4 D:/code_and_stuff/tools/mingw/ucrt64/bin/../lib/gcc/x86_64-w64-mingw32/15.2.0/../../../../lib/libmingw32.a(lib64_libmingw32_a-dllargv.o)
 .xdata         0x00000001400071c4       0x14 D:/code_and_stuff/tools/mingw/ucrt64/bin/../lib/gcc/x86_64-w64-mingw32/15.2.0/../../../../lib/libmingw32.a(lib64_libmingw32_a-tlssup.o)
 .xdata         0x00000001400071d8       0x18 D:/code_and_stuff/tools/mingw/ucrt64/bin/../lib/gcc/x86_64-w64-mingw32/15.2.0/../../../../lib/libmingw32.a(lib64_libmingw32_a-merr.o)
 .xdata         0x00000001400071f0       0x30 D:/code_and_stuff/tools/mingw/ucrt64/bin/../lib/gcc/x86_64-w64-mingw32/15.2.0/../../../../lib/libmingw32.a(lib64_libmingw32_a-pseudo-reloc.o)
 .xdata         0x0000000140007220        0xc D:/code_and_stuff/tools/mingw/ucrt64/bin/../lib/gcc/x86_64-w64-mingw32/15.2.0/../../../../lib/libmingw32.a(lib64_libmingw32_a-usermatherr.o)
 .xdata         0x000000014000722c        0x8 D:/code_and_stuff/tools/mingw/ucrt64/bin/../lib/gcc/x86_64-w64-mingw32/15.2.0/../../../../lib/libmingw32.a(lib64_libmingw32_a-crt_handler.o)
 .xdata         0x0000000140007234       0x28 D:/code_and_stuff/tools/mingw/ucrt64/bin/../lib/gcc/x86_64-w64-mingw32/15.2.0/../../../../lib/libmingw32.a(lib64_libmingw32_a-tlsthrd.o)
 .xdata         0x000000014000725c        0x4 D:/code_and_stuff/tools/mingw/ucrt64/bin/../lib/gcc/x86_64-w64-mingw32/15.2.0/../../../../lib/libmingw32.a(lib64_libmingw32_a-CRT_fp10.o)
 .xdata         0x0000000140007260       0x30 D:/code_and_stuff/tools/mingw/ucrt64/bin/../lib/gcc/x86_64-w64-mingw32/15.2.0/../../../../lib/libmingw32.a(lib64_libmingw32_a-pesect.o)
 .xdata         0x0000000140007290        0xc D:/code_and_stuff/tools/mingw/ucrt64/bin/../lib/gcc/x86_64-w64-mingw32/15.2.0/../../../../lib/libmsvcrt.a(lib64_libucrt_extra_a-ucrt_vfprintf.o)
 .xdata         0x000000014000729c        0xc D:/code_and_stuff/tools/mingw/ucrt64/bin/../lib/gcc/x86_64-w64-mingw32/15.2.0/../../../../lib/libmsvcrt.a(lib64_libucrt_extra_a-ucrt_scanf.o)
 .xdata         0x00000001400072a8        0xc D:/code_and_stuff/tools/mingw/ucrt64/bin/../lib/gcc/x86_64-w64-mingw32/15.2.0/../../../../lib/libmsvcrt.a(lib64_libucrt_extra_a-ucrt_printf.o)
 .xdata         0x00000001400072b4        0xc D:/code_and_stuff/tools/mingw/ucrt64/bin/../lib/gcc/x86_64-w64-mingw32/15.2.0/../../../../lib/libmsvcrt.a(lib64_libucrt_extra_a-ucrt_fprintf.o)
 .xdata         0x00000001400072c0        0x4 D:/code_and_stuff/tools/mingw/ucrt64/bin/../lib/gcc/x86_64-w64-mingw32/15.2.0/../../../../lib/libmsvcrt.a(lib64_libucrt_extra_a-ucrt___local_stdio_scanf_options.o)
 .xdata         0x00000001400072c4        0x4 D:/code_and_stuff/tools/mingw/ucrt64/bin/../lib/gcc/x86_64-w64-mingw32/15.2.0/../../../../lib/libmsvcrt.a(lib64_libucrt_extra_a-ucrt___local_stdio_printf_options.o)
 .xdata         0x00000001400072c8        0x4 D:/code_and_stuff/tools/mingw/ucrt64/bin/../lib/gcc/x86_64-w64-mingw32/15.2.0/../../../../lib/libmsvcrt.a(lib64_libucrt_extra_a-__p___initenv.o)
 .xdata         0x00000001400072cc        0x8 D:/code_and_stuff/tools/mingw/ucrt64/bin/../lib/gcc/x86_64-w64-mingw32/15.2.0/../../../../lib/libmsvcrt.a(lib64_libucrt_extra_a-ucrt_amsg_exit.o)
 .xdata         0x00000001400072d4       0x10 D:/code_and_stuff/tools/mingw/ucrt64/bin/../lib/gcc/x86_64-w64-mingw32/15.2.0/../../../../lib/libmsvcrt.a(lib64_libucrt_extra_a-ucrt__getmainargs.o)
 .xdata.startup
                0x00000001400072e4        0x4 D:/code_and_stuff/tools/mingw/ucrt64/bin/../lib/gcc/x86_64-w64-mingw32/15.2.0/crtend.o

.bss            0x0000000140008000      0x1a0
                0x0000000140008000                __bss_start__ = .
 *(.bss)
 .bss           0x0000000140008000       0x30 D:/code_and_stuff/tools/mingw/ucrt64/bin/../lib/gcc/x86_64-w64-mingw32/15.2.0/../../../../lib/crt2.o
                0x0000000140008000                __mingw_module_is_dll
 .bss           0x0000000140008030        0x0 D:/code_and_stuff/tools/mingw/ucrt64/bin/../lib/gcc/x86_64-w64-mingw32/15.2.0/crtbegin.o
 .bss           0x0000000140008030        0x0 intermediates/objects/cliArgs.o
 .bss           0x0000000140008030        0x0 intermediates/objects/dsa.o
 .bss           0x0000000140008030       0x10 intermediates/objects/morse.o
                0x0000000140008030                treeHead
 .bss           0x0000000140008040        0x0 intermediates/objects/structs.o
 .bss           0x0000000140008040       0x10 D:/code_and_stuff/tools/mingw/ucrt64/bin/../lib/gcc/x86_64-w64-mingw32/15.2.0/../../../../lib/libmingw32.a(lib64_libmingw32_a-gccmain.o)
 .bss           0x0000000140008050       0x10 D:/code_and_stuff/tools/mingw/ucrt64/bin/../lib/gcc/x86_64-w64-mingw32/15.2.0/../../../../lib/libmingw32.a(lib64_libmingw32_a-natstart.o)
                0x0000000140008050                __native_startup_lock
                0x0000000140008058                __native_startup_state
 .bss           0x0000000140008060       0x10 D:/code_and_stuff/tools/mingw/ucrt64/bin/../lib/gcc/x86_64-w64-mingw32/15.2.0/../../../../lib/libmingw32.a(lib64_libmingw32_a-wildcard.o)
                0x0000000140008060                _dowildcard
 .bss           0x0000000140008070        0x0 D:/code_and_stuff/tools/mingw/ucrt64/bin/../lib/gcc/x86_64-w64-mingw32/15.2.0/../../../../lib/libmingw32.a(lib64_libmingw32_a-dllargv.o)
 .bss           0x0000000140008070       0x10 D:/code_and_stuff/tools/mingw/ucrt64/bin/../lib/gcc/x86_64-w64-mingw32/15.2.0/../../../../lib/libmingw32.a(lib64_libmingw32_a-_newmode.o)
                0x0000000140008070                _newmode
 .bss           0x0000000140008080       0x10 D:/code_and_stuff/tools/mingw/ucrt64/bin/../lib/gcc/x86_64-w64-mingw32/15.2.0/../../../../lib/libmingw32.a(lib64_libmingw32_a-tlssup.o)
                0x0000000140008080                __mingw_initltssuo_force
                0x0000000140008084                __mingw_initltsdyn_force
                0x0000000140008088                __mingw_initltsdrot_force
                0x000000014000808c                _tls_index
 .bss           0x0000000140008090       0x10 D:/code_and_stuff/tools/mingw/ucrt64/bin/../lib/gcc/x86_64-w64-mingw32/15.2.0/../../../../lib/libmingw32.a(lib64_libmingw32_a-xncommod.o)
                0x0000000140008090                _commode
 .bss           0x00000001400080a0        0x0 D:/code_and_stuff/tools/mingw/ucrt64/bin/../lib/gcc/x86_64-w64-mingw32/15.2.0/../../../../lib/libmingw32.a(lib64_libmingw32_a-cinitexe.o)
 .bss           0x00000001400080a0        0x0 D:/code_and_stuff/tools/mingw/ucrt64/bin/../lib/gcc/x86_64-w64-mingw32/15.2.0/../../../../lib/libmingw32.a(lib64_libmingw32_a-merr.o)
 .bss           0x00000001400080a0        0x0 D:/code_and_stuff/tools/mingw/ucrt64/bin/../lib/gcc/x86_64-w64-mingw32/15.2.0/../../../../lib/libmingw32.a(lib64_libmingw32_a-xthdloc.o)
 .bss           0x00000001400080a0       0x10 D:/code_and_stuff/tools/mingw/ucrt64/bin/../lib/gcc/x86_64-w64-mingw32/15.2.0/../../../../lib/libmingw32.a(lib64_libmingw32_a-mingw_helpers.o)
                0x00000001400080a0                __mingw_app_type
 .bss           0x00000001400080b0       0x10 D:/code_and_stuff/tools/mingw/ucrt64/bin/../lib/gcc/x86_64-w64-mingw32/15.2.0/../../../../lib/libmingw32.a(lib64_libmingw32_a-pseudo-reloc.o)
 .bss           0x00000001400080c0       0x10 D:/code_and_stuff/tools/mingw/ucrt64/bin/../lib/gcc/x86_64-w64-mingw32/15.2.0/../../../../lib/libmingw32.a(lib64_libmingw32_a-usermatherr.o)
 .bss           0x00000001400080d0       0x10 D:/code_and_stuff/tools/mingw/ucrt64/bin/../lib/gcc/x86_64-w64-mingw32/15.2.0/../../../../lib/libmingw32.a(lib64_libmingw32_a-xtxtmode.o)
                0x00000001400080d0                _fmode
 .bss           0x00000001400080e0       0x10 D:/code_and_stuff/tools/mingw/ucrt64/bin/../lib/gcc/x86_64-w64-mingw32/15.2.0/../../../../lib/libmingw32.a(lib64_libmingw32_a-crt_handler.o)
                0x00000001400080e0                __mingw_oldexcpt_handler
 *fill*         0x00000001400080f0       0x10 
 .bss           0x0000000140008100       0x60 D:/code_and_stuff/tools/mingw/ucrt64/bin/../lib/gcc/x86_64-w64-mingw32/15.2.0/../../../../lib/libmingw32.a(lib64_libmingw32_a-tlsthrd.o)
 .bss           0x0000000140008160        0x0 D:/code_and_stuff/tools/mingw/ucrt64/bin/../lib/gcc/x86_64-w64-mingw32/15.2.0/../../../../lib/libmingw32.a(lib64_libmingw32_a-tlsmcrt.o)
 .bss           0x0000000140008160        0x0 D:/code_and_stuff/tools/mingw/ucrt64/bin/../lib/gcc/x86_64-w64-mingw32/15.2.0/../../../../lib/libmingw32.a(lib64_libmingw32_a-CRT_fp10.o)
 .bss           0x0000000140008160       0x10 D:/code_and_stuff/tools/mingw/ucrt64/bin/../lib/gcc/x86_64-w64-mingw32/15.2.0/../../../../lib/libmingw32.a(lib64_libmingw32_a-pseudo-reloc-list.o)
 .bss           0x0000000140008170        0x0 D:/code_and_stuff/tools/mingw/ucrt64/bin/../lib/gcc/x86_64-w64-mingw32/15.2.0/../../../../lib/libmingw32.a(lib64_libmingw32_a-pesect.o)
 .bss           0x0000000140008170        0x0 D:/code_and_stuff/tools/mingw/ucrt64/bin/../lib/gcc/x86_64-w64-mingw32/15.2.0/libgcc.a(_chkstk_ms.o)
 .bss           0x0000000140008170       0x20 D:/code_and_stuff/tools/mingw/ucrt64/bin/../lib/gcc/x86_64-w64-mingw32/15.2.0/libgcc.a(_ctors.o)
 .bss           0x0000000140008190        0x0 D:/code_and_stuff/tools/mingw/ucrt64/bin/../lib/gcc/x86_64-w64-mingw32/15.2.0/../../../../lib/libmingwex.a(lib64_libmingwex_a-mingw_matherr.o)
 .bss           0x0000000140008190        0x0 D:/code_and_stuff/tools/mingw/ucrt64/bin/../lib/gcc/x86_64-w64-mingw32/15.2.0/../../../../lib/libmsvcrt.a(lib64_libucrt_extra_a-ucrt_vfprintf.o)
 .bss           0x0000000140008190        0x0 D:/code_and_stuff/tools/mingw/ucrt64/bin/../lib/gcc/x86_64-w64-mingw32/15.2.0/../../../../lib/libmsvcrt.a(lib64_libucrt_extra_a-ucrt_scanf.o)
 .bss           0x0000000140008190        0x0 D:/code_and_stuff/tools/mingw/ucrt64/bin/../lib/gcc/x86_64-w64-mingw32/15.2.0/../../../../lib/libmsvcrt.a(lib64_libucrt_extra_a-ucrt_printf.o)
 .bss           0x0000000140008190        0x0 D:/code_and_stuff/tools/mingw/ucrt64/bin/../lib/gcc/x86_64-w64-mingw32/15.2.0/../../../../lib/libmsvcrt.a(lib64_libucrt_extra_a-ucrt_fprintf.o)
 .bss           0x0000000140008190        0x0 D:/code_and_stuff/tools/mingw/ucrt64/bin/../lib/gcc/x86_64-w64-mingw32/15.2.0/../../../../lib/libmsvcrt.a(lib64_libucrt_extra_a-ucrt___local_stdio_scanf_options.o)
 .bss           0x0000000140008190        0x0 D:/code_and_stuff/tools/mingw/ucrt64/bin/../lib/gcc/x86_64-w64-mingw32/15.2.0/../../../../lib/libmsvcrt.a(lib64_libucrt_extra_a-ucrt___local_stdio_printf_options.o)
 .bss           0x0000000140008190        0x0 D:/code_and_stuff/tools/mingw/ucrt64/bin/../lib/gcc/x86_64-w64-mingw32/15.2.0/../../../../lib/libmsvcrt.a(lib64_libucrt_extra_a-__p___initenv.o)
 .bss           0x0000000140008190        0x0 D:/code_and_stuff/tools/mingw/ucrt64/bin/../lib/gcc/x86_64-w64-mingw32/15.2.0/../../../../lib/libmsvcrt.a(lib64_libucrt_extra_a-ucrt_amsg_exit.o)
 .bss           0x0000000140008190        0x0 D:/code_and_stuff/tools/mingw/ucrt64/bin/../lib/gcc/x86_64-w64-mingw32/15.2.0/../../../../lib/libmsvcrt.a(lib64_libucrt_extra_a-ucrt__getmainargs.o)
 .bss           0x0000000140008190        0x0 D:/code_and_stuff/tools/mingw/ucrt64/bin/../lib/gcc/x86_64-w64-mingw32/15.2.0/../../../../lib/libmsvcrt.a(libapi-ms-win-crt-string-l1-1-0s00138.o)
 .bss           0x0000000140008190        0x0 D:/code_and_stuff/tools/mingw/ucrt64/bin/../lib/gcc/x86_64-w64-mingw32/15.2.0/../../../../lib/libmsvcrt.a(libapi-ms-win-crt-string-l1-1-0s00162.o)
 .bss           0x0000000140008190        0x0 D:/code_and_stuff/tools/mingw/ucrt64/bin/../lib/gcc/x86_64-w64-mingw32/15.2.0/../../../../lib/libmsvcrt.a(libapi-ms-win-crt-string-l1-1-0s00164.o)
 .bss           0x0000000140008190        0x0 D:/code_and_stuff/tools/mingw/ucrt64/bin/../lib/gcc/x86_64-w64-mingw32/15.2.0/../../../../lib/libmsvcrt.a(libapi-ms-win-crt-string-l1-1-0s00167.o)
 .bss           0x0000000140008190        0x0 D:/code_and_stuff/tools/mingw/ucrt64/bin/../lib/gcc/x86_64-w64-mingw32/15.2.0/../../../../lib/libmsvcrt.a(libapi-ms-win-crt-string-l1-1-0s00170.o)
 .bss           0x0000000140008190        0x0 D:/code_and_stuff/tools/mingw/ucrt64/bin/../lib/gcc/x86_64-w64-mingw32/15.2.0/../../../../lib/libmsvcrt.a(libapi-ms-win-crt-string-l1-1-0s00176.o)
 .bss           0x0000000140008190        0x0 D:/code_and_stuff/tools/mingw/ucrt64/bin/../lib/gcc/x86_64-w64-mingw32/15.2.0/../../../../lib/libmsvcrt.a(libapi-ms-win-crt-string-l1-1-0h.o)
 .bss           0x0000000140008190        0x0 D:/code_and_stuff/tools/mingw/ucrt64/bin/../lib/gcc/x86_64-w64-mingw32/15.2.0/../../../../lib/libmsvcrt.a(libapi-ms-win-crt-string-l1-1-0t.o)
 .bss           0x0000000140008190        0x0 D:/code_and_stuff/tools/mingw/ucrt64/bin/../lib/gcc/x86_64-w64-mingw32/15.2.0/../../../../lib/libmsvcrt.a(libapi-ms-win-crt-stdio-l1-1-0s00000.o)
 .bss           0x0000000140008190        0x0 D:/code_and_stuff/tools/mingw/ucrt64/bin/../lib/gcc/x86_64-w64-mingw32/15.2.0/../../../../lib/libmsvcrt.a(libapi-ms-win-crt-stdio-l1-1-0s00001.o)
 .bss           0x0000000140008190        0x0 D:/code_and_stuff/tools/mingw/ucrt64/bin/../lib/gcc/x86_64-w64-mingw32/15.2.0/../../../../lib/libmsvcrt.a(libapi-ms-win-crt-stdio-l1-1-0s00002.o)
 .bss           0x0000000140008190        0x0 D:/code_and_stuff/tools/mingw/ucrt64/bin/../lib/gcc/x86_64-w64-mingw32/15.2.0/../../../../lib/libmsvcrt.a(libapi-ms-win-crt-stdio-l1-1-0s00003.o)
 .bss           0x0000000140008190        0x0 D:/code_and_stuff/tools/mingw/ucrt64/bin/../lib/gcc/x86_64-w64-mingw32/15.2.0/../../../../lib/libmsvcrt.a(libapi-ms-win-crt-stdio-l1-1-0s00006.o)
 .bss           0x0000000140008190        0x0 D:/code_and_stuff/tools/mingw/ucrt64/bin/../lib/gcc/x86_64-w64-mingw32/15.2.0/../../../../lib/libmsvcrt.a(libapi-ms-win-crt-stdio-l1-1-0s00152.o)
 .bss           0x0000000140008190        0x0 D:/code_and_stuff/tools/mingw/ucrt64/bin/../lib/gcc/x86_64-w64-mingw32/15.2.0/../../../../lib/libmsvcrt.a(libapi-ms-win-crt-stdio-l1-1-0s00156.o)
 .bss           0x0000000140008190        0x0 D:/code_and_stuff/tools/mingw/ucrt64/bin/../lib/gcc/x86_64-w64-mingw32/15.2.0/../../../../lib/libmsvcrt.a(libapi-ms-win-crt-stdio-l1-1-0s00159.o)
 .bss           0x0000000140008190        0x0 D:/code_and_stuff/tools/mingw/ucrt64/bin/../lib/gcc/x86_64-w64-mingw32/15.2.0/../../../../lib/libmsvcrt.a(libapi-ms-win-crt-stdio-l1-1-0s00162.o)
 .bss           0x0000000140008190        0x0 D:/code_and_stuff/tools/mingw/ucrt64/bin/../lib/gcc/x86_64-w64-mingw32/15.2.0/../../../../lib/libmsvcrt.a(libapi-ms-win-crt-stdio-l1-1-0s00179.o)
 .bss           0x0000000140008190        0x0 D:/code_and_stuff/tools/mingw/ucrt64/bin/../lib/gcc/x86_64-w64-mingw32/15.2.0/../../../../lib/libmsvcrt.a(libapi-ms-win-crt-stdio-l1-1-0s00188.o)
 .bss           0x0000000140008190        0x0 D:/code_and_stuff/tools/mingw/ucrt64/bin/../lib/gcc/x86_64-w64-mingw32/15.2.0/../../../../lib/libmsvcrt.a(libapi-ms-win-crt-stdio-l1-1-0s00189.o)
 .bss           0x0000000140008190        0x0 D:/code_and_stuff/tools/mingw/ucrt64/bin/../lib/gcc/x86_64-w64-mingw32/15.2.0/../../../../lib/libmsvcrt.a(libapi-ms-win-crt-stdio-l1-1-0h.o)
 .bss           0x0000000140008190        0x0 D:/code_and_stuff/tools/mingw/ucrt64/bin/../lib/gcc/x86_64-w64-mingw32/15.2.0/../../../../lib/libmsvcrt.a(libapi-ms-win-crt-stdio-l1-1-0t.o)
 .bss           0x0000000140008190        0x0 D:/code_and_stuff/tools/mingw/ucrt64/bin/../lib/gcc/x86_64-w64-mingw32/15.2.0/../../../../lib/libmsvcrt.a(libapi-ms-win-crt-runtime-l1-1-0s00004.o)
 .bss           0x0000000140008190        0x0 D:/code_and_stuff/tools/mingw/ucrt64/bin/../lib/gcc/x86_64-w64-mingw32/15.2.0/../../../../lib/libmsvcrt.a(libapi-ms-win-crt-runtime-l1-1-0s00005.o)
 .bss           0x0000000140008190        0x0 D:/code_and_stuff/tools/mingw/ucrt64/bin/../lib/gcc/x86_64-w64-mingw32/15.2.0/../../../../lib/libmsvcrt.a(libapi-ms-win-crt-runtime-l1-1-0s00022.o)
 .bss           0x0000000140008190        0x0 D:/code_and_stuff/tools/mingw/ucrt64/bin/../lib/gcc/x86_64-w64-mingw32/15.2.0/../../../../lib/libmsvcrt.a(libapi-ms-win-crt-runtime-l1-1-0s00024.o)
 .bss           0x0000000140008190        0x0 D:/code_and_stuff/tools/mingw/ucrt64/bin/../lib/gcc/x86_64-w64-mingw32/15.2.0/../../../../lib/libmsvcrt.a(libapi-ms-win-crt-runtime-l1-1-0s00030.o)
 .bss           0x0000000140008190        0x0 D:/code_and_stuff/tools/mingw/ucrt64/bin/../lib/gcc/x86_64-w64-mingw32/15.2.0/../../../../lib/libmsvcrt.a(libapi-ms-win-crt-runtime-l1-1-0s00035.o)
 .bss           0x0000000140008190        0x0 D:/code_and_stuff/tools/mingw/ucrt64/bin/../lib/gcc/x86_64-w64-mingw32/15.2.0/../../../../lib/libmsvcrt.a(libapi-ms-win-crt-runtime-l1-1-0s00051.o)
 .bss           0x0000000140008190        0x0 D:/code_and_stuff/tools/mingw/ucrt64/bin/../lib/gcc/x86_64-w64-mingw32/15.2.0/../../../../lib/libmsvcrt.a(libapi-ms-win-crt-runtime-l1-1-0s00054.o)
 .bss           0x0000000140008190        0x0 D:/code_and_stuff/tools/mingw/ucrt64/bin/../lib/gcc/x86_64-w64-mingw32/15.2.0/../../../../lib/libmsvcrt.a(libapi-ms-win-crt-runtime-l1-1-0s00056.o)
 .bss           0x0000000140008190        0x0 D:/code_and_stuff/tools/mingw/ucrt64/bin/../lib/gcc/x86_64-w64-mingw32/15.2.0/../../../../lib/libmsvcrt.a(libapi-ms-win-crt-runtime-l1-1-0s00057.o)
 .bss           0x0000000140008190        0x0 D:/code_and_stuff/tools/mingw/ucrt64/bin/../lib/gcc/x86_64-w64-mingw32/15.2.0/../../../../lib/libmsvcrt.a(libapi-ms-win-crt-runtime-l1-1-0s00073.o)
 .bss           0x0000000140008190        0x0 D:/code_and_stuff/tools/mingw/ucrt64/bin/../lib/gcc/x86_64-w64-mingw32/15.2.0/../../../../lib/libmsvcrt.a(libapi-ms-win-crt-runtime-l1-1-0s00086.o)
 .bss           0x0000000140008190        0x0 D:/code_and_stuff/tools/mingw/ucrt64/bin/../lib/gcc/x86_64-w64-mingw32/15.2.0/../../../../lib/libmsvcrt.a(libapi-ms-win-crt-runtime-l1-1-0s00087.o)
 .bss           0x0000000140008190        0x0 D:/code_and_stuff/tools/mingw/ucrt64/bin/../lib/gcc/x86_64-w64-mingw32/15.2.0/../../../../lib/libmsvcrt.a(libapi-ms-win-crt-runtime-l1-1-0s00101.o)
 .bss           0x0000000140008190        0x0 D:/code_and_stuff/tools/mingw/ucrt64/bin/../lib/gcc/x86_64-w64-mingw32/15.2.0/../../../../lib/libmsvcrt.a(libapi-ms-win-crt-runtime-l1-1-0h.o)
 .bss           0x0000000140008190        0x0 D:/code_and_stuff/tools/mingw/ucrt64/bin/../lib/gcc/x86_64-w64-mingw32/15.2.0/../../../../lib/libmsvcrt.a(libapi-ms-win-crt-runtime-l1-1-0t.o)
 .bss           0x0000000140008190        0x0 D:/code_and_stuff/tools/mingw/ucrt64/bin/../lib/gcc/x86_64-w64-mingw32/15.2.0/../../../../lib/libmsvcrt.a(libapi-ms-win-crt-private-l1-1-0s00012.o)
 .bss           0x0000000140008190        0x0 D:/code_and_stuff/tools/mingw/ucrt64/bin/../lib/gcc/x86_64-w64-mingw32/15.2.0/../../../../lib/libmsvcrt.a(libapi-ms-win-crt-private-l1-1-0s01088.o)
 .bss           0x0000000140008190        0x0 D:/code_and_stuff/tools/mingw/ucrt64/bin/../lib/gcc/x86_64-w64-mingw32/15.2.0/../../../../lib/libmsvcrt.a(libapi-ms-win-crt-private-l1-1-0h.o)
 .bss           0x0000000140008190        0x0 D:/code_and_stuff/tools/mingw/ucrt64/bin/../lib/gcc/x86_64-w64-mingw32/15.2.0/../../../../lib/libmsvcrt.a(libapi-ms-win-crt-private-l1-1-0t.o)
 .bss           0x0000000140008190        0x0 D:/code_and_stuff/tools/mingw/ucrt64/bin/../lib/gcc/x86_64-w64-mingw32/15.2.0/../../../../lib/libmsvcrt.a(libapi-ms-win-crt-math-l1-1-0s00009.o)
 .bss           0x0000000140008190        0x0 D:/code_and_stuff/tools/mingw/ucrt64/bin/../lib/gcc/x86_64-w64-mingw32/15.2.0/../../../../lib/libmsvcrt.a(libapi-ms-win-crt-math-l1-1-0h.o)
 .bss           0x0000000140008190        0x0 D:/code_and_stuff/tools/mingw/ucrt64/bin/../lib/gcc/x86_64-w64-mingw32/15.2.0/../../../../lib/libmsvcrt.a(libapi-ms-win-crt-math-l1-1-0t.o)
 .bss           0x0000000140008190        0x0 D:/code_and_stuff/tools/mingw/ucrt64/bin/../lib/gcc/x86_64-w64-mingw32/15.2.0/../../../../lib/libmsvcrt.a(libapi-ms-win-crt-locale-l1-1-0s00009.o)
 .bss           0x0000000140008190        0x0 D:/code_and_stuff/tools/mingw/ucrt64/bin/../lib/gcc/x86_64-w64-mingw32/15.2.0/../../../../lib/libmsvcrt.a(libapi-ms-win-crt-locale-l1-1-0h.o)
 .bss           0x0000000140008190        0x0 D:/code_and_stuff/tools/mingw/ucrt64/bin/../lib/gcc/x86_64-w64-mingw32/15.2.0/../../../../lib/libmsvcrt.a(libapi-ms-win-crt-locale-l1-1-0t.o)
 .bss           0x0000000140008190        0x0 D:/code_and_stuff/tools/mingw/ucrt64/bin/../lib/gcc/x86_64-w64-mingw32/15.2.0/../../../../lib/libmsvcrt.a(libapi-ms-win-crt-heap-l1-1-0s00023.o)
 .bss           0x0000000140008190        0x0 D:/code_and_stuff/tools/mingw/ucrt64/bin/../lib/gcc/x86_64-w64-mingw32/15.2.0/../../../../lib/libmsvcrt.a(libapi-ms-win-crt-heap-l1-1-0s00024.o)
 .bss           0x0000000140008190        0x0 D:/code_and_stuff/tools/mingw/ucrt64/bin/../lib/gcc/x86_64-w64-mingw32/15.2.0/../../../../lib/libmsvcrt.a(libapi-ms-win-crt-heap-l1-1-0s00025.o)
 .bss           0x0000000140008190        0x0 D:/code_and_stuff/tools/mingw/ucrt64/bin/../lib/gcc/x86_64-w64-mingw32/15.2.0/../../../../lib/libmsvcrt.a(libapi-ms-win-crt-heap-l1-1-0s00026.o)
 .bss           0x0000000140008190        0x0 D:/code_and_stuff/tools/mingw/ucrt64/bin/../lib/gcc/x86_64-w64-mingw32/15.2.0/../../../../lib/libmsvcrt.a(libapi-ms-win-crt-heap-l1-1-0s00027.o)
 .bss           0x0000000140008190        0x0 D:/code_and_stuff/tools/mingw/ucrt64/bin/../lib/gcc/x86_64-w64-mingw32/15.2.0/../../../../lib/libmsvcrt.a(libapi-ms-win-crt-heap-l1-1-0h.o)
 .bss           0x0000000140008190        0x0 D:/code_and_stuff/tools/mingw/ucrt64/bin/../lib/gcc/x86_64-w64-mingw32/15.2.0/../../../../lib/libmsvcrt.a(libapi-ms-win-crt-heap-l1-1-0t.o)
 .bss           0x0000000140008190        0x0 D:/code_and_stuff/tools/mingw/ucrt64/bin/../lib/gcc/x86_64-w64-mingw32/15.2.0/../../../../lib/libmsvcrt.a(libapi-ms-win-crt-environment-l1-1-0s00000.o)
 .bss           0x0000000140008190        0x0 D:/code_and_stuff/tools/mingw/ucrt64/bin/../lib/gcc/x86_64-w64-mingw32/15.2.0/../../../../lib/libmsvcrt.a(libapi-ms-win-crt-environment-l1-1-0h.o)
 .bss           0x0000000140008190        0x0 D:/code_and_stuff/tools/mingw/ucrt64/bin/../lib/gcc/x86_64-w64-mingw32/15.2.0/../../../../lib/libmsvcrt.a(libapi-ms-win-crt-environment-l1-1-0t.o)
 .bss           0x0000000140008190       0x10 D:/code_and_stuff/tools/mingw/ucrt64/bin/../lib/gcc/x86_64-w64-mingw32/15.2.0/../../../../lib/libmsvcrt.a(lib64_libucrt_extra_a-__initenv.o)
 .bss           0x00000001400081a0        0x0 D:/code_and_stuff/tools/mingw/ucrt64/bin/../lib/gcc/x86_64-w64-mingw32/15.2.0/../../../../lib/libkernel32.a(libkernel32s01535.o)
 .bss           0x00000001400081a0        0x0 D:/code_and_stuff/tools/mingw/ucrt64/bin/../lib/gcc/x86_64-w64-mingw32/15.2.0/../../../../lib/libkernel32.a(libkernel32s01533.o)
 .bss           0x00000001400081a0        0x0 D:/code_and_stuff/tools/mingw/ucrt64/bin/../lib/gcc/x86_64-w64-mingw32/15.2.0/../../../../lib/libkernel32.a(libkernel32s01485.o)
 .bss           0x00000001400081a0        0x0 D:/code_and_stuff/tools/mingw/ucrt64/bin/../lib/gcc/x86_64-w64-mingw32/15.2.0/../../../../lib/libkernel32.a(libkernel32s01449.o)
 .bss           0x00000001400081a0        0x0 D:/code_and_stuff/tools/mingw/ucrt64/bin/../lib/gcc/x86_64-w64-mingw32/15.2.0/../../../../lib/libkernel32.a(libkernel32s01433.o)
 .bss           0x00000001400081a0        0x0 D:/code_and_stuff/tools/mingw/ucrt64/bin/../lib/gcc/x86_64-w64-mingw32/15.2.0/../../../../lib/libkernel32.a(libkernel32s01012.o)
 .bss           0x00000001400081a0        0x0 D:/code_and_stuff/tools/mingw/ucrt64/bin/../lib/gcc/x86_64-w64-mingw32/15.2.0/../../../../lib/libkernel32.a(libkernel32s00918.o)
 .bss           0x00000001400081a0        0x0 D:/code_and_stuff/tools/mingw/ucrt64/bin/../lib/gcc/x86_64-w64-mingw32/15.2.0/../../../../lib/libkernel32.a(libkernel32s00648.o)
 .bss           0x00000001400081a0        0x0 D:/code_and_stuff/tools/mingw/ucrt64/bin/../lib/gcc/x86_64-w64-mingw32/15.2.0/../../../../lib/libkernel32.a(libkernel32s00333.o)
 .bss           0x00000001400081a0        0x0 D:/code_and_stuff/tools/mingw/ucrt64/bin/../lib/gcc/x86_64-w64-mingw32/15.2.0/../../../../lib/libkernel32.a(libkernel32s00295.o)
 .bss           0x00000001400081a0        0x0 D:/code_and_stuff/tools/mingw/ucrt64/bin/../lib/gcc/x86_64-w64-mingw32/15.2.0/../../../../lib/libkernel32.a(libkernel32h.o)
 .bss           0x00000001400081a0        0x0 D:/code_and_stuff/tools/mingw/ucrt64/bin/../lib/gcc/x86_64-w64-mingw32/15.2.0/../../../../lib/libkernel32.a(libkernel32t.o)
 .bss           0x00000001400081a0        0x0 D:/code_and_stuff/tools/mingw/ucrt64/bin/../lib/gcc/x86_64-w64-mingw32/15.2.0/crtend.o
 *(COMMON)
                0x00000001400081a0                __bss_end__ = .

.edata
 *(.edata)

/DISCARD/
 *(.debug$S)
 *(.debug$T)
 *(.debug$F)
 *(.drectve)
 *(.note.GNU-stack)
 *(.gnu.lto_*)
 *(.gnu_object_only)

.idata          0x0000000140009000      0xa00
 SORT_BY_NAME(*)(.idata$2)
 .idata$2       0x0000000140009000       0x14 D:/code_and_stuff/tools/mingw/ucrt64/bin/../lib/gcc/x86_64-w64-mingw32/15.2.0/../../../../lib/libkernel32.a(libkernel32h.o)
                0x0000000140009000                _head_lib64_libkernel32_a
 .idata$2       0x0000000140009014       0x14 D:/code_and_stuff/tools/mingw/ucrt64/bin/../lib/gcc/x86_64-w64-mingw32/15.2.0/../../../../lib/libmsvcrt.a(libapi-ms-win-crt-environment-l1-1-0h.o)
                0x0000000140009014                _head_lib64_libapi_ms_win_crt_environment_l1_1_0_a
 .idata$2       0x0000000140009028       0x14 D:/code_and_stuff/tools/mingw/ucrt64/bin/../lib/gcc/x86_64-w64-mingw32/15.2.0/../../../../lib/libmsvcrt.a(libapi-ms-win-crt-heap-l1-1-0h.o)
                0x0000000140009028                _head_lib64_libapi_ms_win_crt_heap_l1_1_0_a
 .idata$2       0x000000014000903c       0x14 D:/code_and_stuff/tools/mingw/ucrt64/bin/../lib/gcc/x86_64-w64-mingw32/15.2.0/../../../../lib/libmsvcrt.a(libapi-ms-win-crt-locale-l1-1-0h.o)
                0x000000014000903c                _head_lib64_libapi_ms_win_crt_locale_l1_1_0_a
 .idata$2       0x0000000140009050       0x14 D:/code_and_stuff/tools/mingw/ucrt64/bin/../lib/gcc/x86_64-w64-mingw32/15.2.0/../../../../lib/libmsvcrt.a(libapi-ms-win-crt-math-l1-1-0h.o)
                0x0000000140009050                _head_lib64_libapi_ms_win_crt_math_l1_1_0_a
 .idata$2       0x0000000140009064       0x14 D:/code_and_stuff/tools/mingw/ucrt64/bin/../lib/gcc/x86_64-w64-mingw32/15.2.0/../../../../lib/libmsvcrt.a(libapi-ms-win-crt-private-l1-1-0h.o)
                0x0000000140009064                _head_lib64_libapi_ms_win_crt_private_l1_1_0_a
 .idata$2       0x0000000140009078       0x14 D:/code_and_stuff/tools/mingw/ucrt64/bin/../lib/gcc/x86_64-w64-mingw32/15.2.0/../../../../lib/libmsvcrt.a(libapi-ms-win-crt-runtime-l1-1-0h.o)
                0x0000000140009078                _head_lib64_libapi_ms_win_crt_runtime_l1_1_0_a
 .idata$2       0x000000014000908c       0x14 D:/code_and_stuff/tools/mingw/ucrt64/bin/../lib/gcc/x86_64-w64-mingw32/15.2.0/../../../../lib/libmsvcrt.a(libapi-ms-win-crt-stdio-l1-1-0h.o)
                0x000000014000908c                _head_lib64_libapi_ms_win_crt_stdio_l1_1_0_a
 .idata$2       0x00000001400090a0       0x14 D:/code_and_stuff/tools/mingw/ucrt64/bin/../lib/gcc/x86_64-w64-mingw32/15.2.0/../../../../lib/libmsvcrt.a(libapi-ms-win-crt-string-l1-1-0h.o)
                0x00000001400090a0                _head_lib64_libapi_ms_win_crt_string_l1_1_0_a
 SORT_BY_NAME(*)(.idata$3)
                0x00000001400090b4        0x4 LONG 0x0
                0x00000001400090b8        0x4 LONG 0x0
                0x00000001400090bc        0x4 LONG 0x0
                0x00000001400090c0        0x4 LONG 0x0
                0x00000001400090c4        0x4 LONG 0x0
                0x00000001400090c8                . = ALIGN (0x8)
 SORT_BY_NAME(*)(.idata$4)
 .idata$4       0x00000001400090c8        0x0 D:/code_and_stuff/tools/mingw/ucrt64/bin/../lib/gcc/x86_64-w64-mingw32/15.2.0/../../../../lib/libkernel32.a(libkernel32h.o)
 .idata$4       0x00000001400090c8        0x8 D:/code_and_stuff/tools/mingw/ucrt64/bin/../lib/gcc/x86_64-w64-mingw32/15.2.0/../../../../lib/libkernel32.a(libkernel32s00295.o)
 .idata$4       0x00000001400090d0        0x8 D:/code_and_stuff/tools/mingw/ucrt64/bin/../lib/gcc/x86_64-w64-mingw32/15.2.0/../../../../lib/libkernel32.a(libkernel32s00333.o)
 .idata$4       0x00000001400090d8        0x8 D:/code_and_stuff/tools/mingw/ucrt64/bin/../lib/gcc/x86_64-w64-mingw32/15.2.0/../../../../lib/libkernel32.a(libkernel32s00648.o)
 .idata$4       0x00000001400090e0        0x8 D:/code_and_stuff/tools/mingw/ucrt64/bin/../lib/gcc/x86_64-w64-mingw32/15.2.0/../../../../lib/libkernel32.a(libkernel32s00918.o)
 .idata$4       0x00000001400090e8        0x8 D:/code_and_stuff/tools/mingw/ucrt64/bin/../lib/gcc/x86_64-w64-mingw32/15.2.0/../../../../lib/libkernel32.a(libkernel32s01012.o)
 .idata$4       0x00000001400090f0        0x8 D:/code_and_stuff/tools/mingw/ucrt64/bin/../lib/gcc/x86_64-w64-mingw32/15.2.0/../../../../lib/libkernel32.a(libkernel32s01433.o)
 .idata$4       0x00000001400090f8        0x8 D:/code_and_stuff/tools/mingw/ucrt64/bin/../lib/gcc/x86_64-w64-mingw32/15.2.0/../../../../lib/libkernel32.a(libkernel32s01449.o)
 .idata$4       0x0000000140009100        0x8 D:/code_and_stuff/tools/mingw/ucrt64/bin/../lib/gcc/x86_64-w64-mingw32/15.2.0/../../../../lib/libkernel32.a(libkernel32s01485.o)
 .idata$4       0x0000000140009108        0x8 D:/code_and_stuff/tools/mingw/ucrt64/bin/../lib/gcc/x86_64-w64-mingw32/15.2.0/../../../../lib/libkernel32.a(libkernel32s01533.o)
 .idata$4       0x0000000140009110        0x8 D:/code_and_stuff/tools/mingw/ucrt64/bin/../lib/gcc/x86_64-w64-mingw32/15.2.0/../../../../lib/libkernel32.a(libkernel32s01535.o)
 .idata$4       0x0000000140009118        0x8 D:/code_and_stuff/tools/mingw/ucrt64/bin/../lib/gcc/x86_64-w64-mingw32/15.2.0/../../../../lib/libkernel32.a(libkernel32t.o)
 .idata$4       0x0000000140009120        0x0 D:/code_and_stuff/tools/mingw/ucrt64/bin/../lib/gcc/x86_64-w64-mingw32/15.2.0/../../../../lib/libmsvcrt.a(libapi-ms-win-crt-environment-l1-1-0h.o)
 .idata$4       0x0000000140009120        0x8 D:/code_and_stuff/tools/mingw/ucrt64/bin/../lib/gcc/x86_64-w64-mingw32/15.2.0/../../../../lib/libmsvcrt.a(libapi-ms-win-crt-environment-l1-1-0s00000.o)
 .idata$4       0x0000000140009128        0x8 D:/code_and_stuff/tools/mingw/ucrt64/bin/../lib/gcc/x86_64-w64-mingw32/15.2.0/../../../../lib/libmsvcrt.a(libapi-ms-win-crt-environment-l1-1-0t.o)
 .idata$4       0x0000000140009130        0x0 D:/code_and_stuff/tools/mingw/ucrt64/bin/../lib/gcc/x86_64-w64-mingw32/15.2.0/../../../../lib/libmsvcrt.a(libapi-ms-win-crt-heap-l1-1-0h.o)
 .idata$4       0x0000000140009130        0x8 D:/code_and_stuff/tools/mingw/ucrt64/bin/../lib/gcc/x86_64-w64-mingw32/15.2.0/../../../../lib/libmsvcrt.a(libapi-ms-win-crt-heap-l1-1-0s00023.o)
 .idata$4       0x0000000140009138        0x8 D:/code_and_stuff/tools/mingw/ucrt64/bin/../lib/gcc/x86_64-w64-mingw32/15.2.0/../../../../lib/libmsvcrt.a(libapi-ms-win-crt-heap-l1-1-0s00024.o)
 .idata$4       0x0000000140009140        0x8 D:/code_and_stuff/tools/mingw/ucrt64/bin/../lib/gcc/x86_64-w64-mingw32/15.2.0/../../../../lib/libmsvcrt.a(libapi-ms-win-crt-heap-l1-1-0s00025.o)
 .idata$4       0x0000000140009148        0x8 D:/code_and_stuff/tools/mingw/ucrt64/bin/../lib/gcc/x86_64-w64-mingw32/15.2.0/../../../../lib/libmsvcrt.a(libapi-ms-win-crt-heap-l1-1-0s00026.o)
 .idata$4       0x0000000140009150        0x8 D:/code_and_stuff/tools/mingw/ucrt64/bin/../lib/gcc/x86_64-w64-mingw32/15.2.0/../../../../lib/libmsvcrt.a(libapi-ms-win-crt-heap-l1-1-0s00027.o)
 .idata$4       0x0000000140009158        0x8 D:/code_and_stuff/tools/mingw/ucrt64/bin/../lib/gcc/x86_64-w64-mingw32/15.2.0/../../../../lib/libmsvcrt.a(libapi-ms-win-crt-heap-l1-1-0t.o)
 .idata$4       0x0000000140009160        0x0 D:/code_and_stuff/tools/mingw/ucrt64/bin/../lib/gcc/x86_64-w64-mingw32/15.2.0/../../../../lib/libmsvcrt.a(libapi-ms-win-crt-locale-l1-1-0h.o)
 .idata$4       0x0000000140009160        0x8 D:/code_and_stuff/tools/mingw/ucrt64/bin/../lib/gcc/x86_64-w64-mingw32/15.2.0/../../../../lib/libmsvcrt.a(libapi-ms-win-crt-locale-l1-1-0s00009.o)
 .idata$4       0x0000000140009168        0x8 D:/code_and_stuff/tools/mingw/ucrt64/bin/../lib/gcc/x86_64-w64-mingw32/15.2.0/../../../../lib/libmsvcrt.a(libapi-ms-win-crt-locale-l1-1-0t.o)
 .idata$4       0x0000000140009170        0x0 D:/code_and_stuff/tools/mingw/ucrt64/bin/../lib/gcc/x86_64-w64-mingw32/15.2.0/../../../../lib/libmsvcrt.a(libapi-ms-win-crt-math-l1-1-0h.o)
 .idata$4       0x0000000140009170        0x8 D:/code_and_stuff/tools/mingw/ucrt64/bin/../lib/gcc/x86_64-w64-mingw32/15.2.0/../../../../lib/libmsvcrt.a(libapi-ms-win-crt-math-l1-1-0s00009.o)
 .idata$4       0x0000000140009178        0x8 D:/code_and_stuff/tools/mingw/ucrt64/bin/../lib/gcc/x86_64-w64-mingw32/15.2.0/../../../../lib/libmsvcrt.a(libapi-ms-win-crt-math-l1-1-0t.o)
 .idata$4       0x0000000140009180        0x0 D:/code_and_stuff/tools/mingw/ucrt64/bin/../lib/gcc/x86_64-w64-mingw32/15.2.0/../../../../lib/libmsvcrt.a(libapi-ms-win-crt-private-l1-1-0h.o)
 .idata$4       0x0000000140009180        0x8 D:/code_and_stuff/tools/mingw/ucrt64/bin/../lib/gcc/x86_64-w64-mingw32/15.2.0/../../../../lib/libmsvcrt.a(libapi-ms-win-crt-private-l1-1-0s00012.o)
 .idata$4       0x0000000140009188        0x8 D:/code_and_stuff/tools/mingw/ucrt64/bin/../lib/gcc/x86_64-w64-mingw32/15.2.0/../../../../lib/libmsvcrt.a(libapi-ms-win-crt-private-l1-1-0s01088.o)
 .idata$4       0x0000000140009190        0x8 D:/code_and_stuff/tools/mingw/ucrt64/bin/../lib/gcc/x86_64-w64-mingw32/15.2.0/../../../../lib/libmsvcrt.a(libapi-ms-win-crt-private-l1-1-0t.o)
 .idata$4       0x0000000140009198        0x0 D:/code_and_stuff/tools/mingw/ucrt64/bin/../lib/gcc/x86_64-w64-mingw32/15.2.0/../../../../lib/libmsvcrt.a(libapi-ms-win-crt-runtime-l1-1-0h.o)
 .idata$4       0x0000000140009198        0x8 D:/code_and_stuff/tools/mingw/ucrt64/bin/../lib/gcc/x86_64-w64-mingw32/15.2.0/../../../../lib/libmsvcrt.a(libapi-ms-win-crt-runtime-l1-1-0s00004.o)
 .idata$4       0x00000001400091a0        0x8 D:/code_and_stuff/tools/mingw/ucrt64/bin/../lib/gcc/x86_64-w64-mingw32/15.2.0/../../../../lib/libmsvcrt.a(libapi-ms-win-crt-runtime-l1-1-0s00005.o)
 .idata$4       0x00000001400091a8        0x8 D:/code_and_stuff/tools/mingw/ucrt64/bin/../lib/gcc/x86_64-w64-mingw32/15.2.0/../../../../lib/libmsvcrt.a(libapi-ms-win-crt-runtime-l1-1-0s00022.o)
 .idata$4       0x00000001400091b0        0x8 D:/code_and_stuff/tools/mingw/ucrt64/bin/../lib/gcc/x86_64-w64-mingw32/15.2.0/../../../../lib/libmsvcrt.a(libapi-ms-win-crt-runtime-l1-1-0s00024.o)
 .idata$4       0x00000001400091b8        0x8 D:/code_and_stuff/tools/mingw/ucrt64/bin/../lib/gcc/x86_64-w64-mingw32/15.2.0/../../../../lib/libmsvcrt.a(libapi-ms-win-crt-runtime-l1-1-0s00030.o)
 .idata$4       0x00000001400091c0        0x8 D:/code_and_stuff/tools/mingw/ucrt64/bin/../lib/gcc/x86_64-w64-mingw32/15.2.0/../../../../lib/libmsvcrt.a(libapi-ms-win-crt-runtime-l1-1-0s00035.o)
 .idata$4       0x00000001400091c8        0x8 D:/code_and_stuff/tools/mingw/ucrt64/bin/../lib/gcc/x86_64-w64-mingw32/15.2.0/../../../../lib/libmsvcrt.a(libapi-ms-win-crt-runtime-l1-1-0s00051.o)
 .idata$4       0x00000001400091d0        0x8 D:/code_and_stuff/tools/mingw/ucrt64/bin/../lib/gcc/x86_64-w64-mingw32/15.2.0/../../../../lib/libmsvcrt.a(libapi-ms-win-crt-runtime-l1-1-0s00054.o)
 .idata$4       0x00000001400091d8        0x8 D:/code_and_stuff/tools/mingw/ucrt64/bin/../lib/gcc/x86_64-w64-mingw32/15.2.0/../../../../lib/libmsvcrt.a(libapi-ms-win-crt-runtime-l1-1-0s00056.o)
 .idata$4       0x00000001400091e0        0x8 D:/code_and_stuff/tools/mingw/ucrt64/bin/../lib/gcc/x86_64-w64-mingw32/15.2.0/../../../../lib/libmsvcrt.a(libapi-ms-win-crt-runtime-l1-1-0s00057.o)
 .idata$4       0x00000001400091e8        0x8 D:/code_and_stuff/tools/mingw/ucrt64/bin/../lib/gcc/x86_64-w64-mingw32/15.2.0/../../../../lib/libmsvcrt.a(libapi-ms-win-crt-runtime-l1-1-0s00073.o)
 .idata$4       0x00000001400091f0        0x8 D:/code_and_stuff/tools/mingw/ucrt64/bin/../lib/gcc/x86_64-w64-mingw32/15.2.0/../../../../lib/libmsvcrt.a(libapi-ms-win-crt-runtime-l1-1-0s00086.o)
 .idata$4       0x00000001400091f8        0x8 D:/code_and_stuff/tools/mingw/ucrt64/bin/../lib/gcc/x86_64-w64-mingw32/15.2.0/../../../../lib/libmsvcrt.a(libapi-ms-win-crt-runtime-l1-1-0s00087.o)
 .idata$4       0x0000000140009200        0x8 D:/code_and_stuff/tools/mingw/ucrt64/bin/../lib/gcc/x86_64-w64-mingw32/15.2.0/../../../../lib/libmsvcrt.a(libapi-ms-win-crt-runtime-l1-1-0s00101.o)
 .idata$4       0x0000000140009208        0x8 D:/code_and_stuff/tools/mingw/ucrt64/bin/../lib/gcc/x86_64-w64-mingw32/15.2.0/../../../../lib/libmsvcrt.a(libapi-ms-win-crt-runtime-l1-1-0t.o)
 .idata$4       0x0000000140009210        0x0 D:/code_and_stuff/tools/mingw/ucrt64/bin/../lib/gcc/x86_64-w64-mingw32/15.2.0/../../../../lib/libmsvcrt.a(libapi-ms-win-crt-stdio-l1-1-0h.o)
 .idata$4       0x0000000140009210        0x8 D:/code_and_stuff/tools/mingw/ucrt64/bin/../lib/gcc/x86_64-w64-mingw32/15.2.0/../../../../lib/libmsvcrt.a(libapi-ms-win-crt-stdio-l1-1-0s00000.o)
 .idata$4       0x0000000140009218        0x8 D:/code_and_stuff/tools/mingw/ucrt64/bin/../lib/gcc/x86_64-w64-mingw32/15.2.0/../../../../lib/libmsvcrt.a(libapi-ms-win-crt-stdio-l1-1-0s00001.o)
 .idata$4       0x0000000140009220        0x8 D:/code_and_stuff/tools/mingw/ucrt64/bin/../lib/gcc/x86_64-w64-mingw32/15.2.0/../../../../lib/libmsvcrt.a(libapi-ms-win-crt-stdio-l1-1-0s00002.o)
 .idata$4       0x0000000140009228        0x8 D:/code_and_stuff/tools/mingw/ucrt64/bin/../lib/gcc/x86_64-w64-mingw32/15.2.0/../../../../lib/libmsvcrt.a(libapi-ms-win-crt-stdio-l1-1-0s00003.o)
 .idata$4       0x0000000140009230        0x8 D:/code_and_stuff/tools/mingw/ucrt64/bin/../lib/gcc/x86_64-w64-mingw32/15.2.0/../../../../lib/libmsvcrt.a(libapi-ms-win-crt-stdio-l1-1-0s00006.o)
 .idata$4       0x0000000140009238        0x8 D:/code_and_stuff/tools/mingw/ucrt64/bin/../lib/gcc/x86_64-w64-mingw32/15.2.0/../../../../lib/libmsvcrt.a(libapi-ms-win-crt-stdio-l1-1-0s00152.o)
 .idata$4       0x0000000140009240        0x8 D:/code_and_stuff/tools/mingw/ucrt64/bin/../lib/gcc/x86_64-w64-mingw32/15.2.0/../../../../lib/libmsvcrt.a(libapi-ms-win-crt-stdio-l1-1-0s00156.o)
 .idata$4       0x0000000140009248        0x8 D:/code_and_stuff/tools/mingw/ucrt64/bin/../lib/gcc/x86_64-w64-mingw32/15.2.0/../../../../lib/libmsvcrt.a(libapi-ms-win-crt-stdio-l1-1-0s00159.o)
 .idata$4       0x0000000140009250        0x8 D:/code_and_stuff/tools/mingw/ucrt64/bin/../lib/gcc/x86_64-w64-mingw32/15.2.0/../../../../lib/libmsvcrt.a(libapi-ms-win-crt-stdio-l1-1-0s00162.o)
 .idata$4       0x0000000140009258        0x8 D:/code_and_stuff/tools/mingw/ucrt64/bin/../lib/gcc/x86_64-w64-mingw32/15.2.0/../../../../lib/libmsvcrt.a(libapi-ms-win-crt-stdio-l1-1-0s00179.o)
 .idata$4       0x0000000140009260        0x8 D:/code_and_stuff/tools/mingw/ucrt64/bin/../lib/gcc/x86_64-w64-mingw32/15.2.0/../../../../lib/libmsvcrt.a(libapi-ms-win-crt-stdio-l1-1-0s00188.o)
 .idata$4       0x0000000140009268        0x8 D:/code_and_stuff/tools/mingw/ucrt64/bin/../lib/gcc/x86_64-w64-mingw32/15.2.0/../../../../lib/libmsvcrt.a(libapi-ms-win-crt-stdio-l1-1-0s00189.o)
 .idata$4       0x0000000140009270        0x8 D:/code_and_stuff/tools/mingw/ucrt64/bin/../lib/gcc/x86_64-w64-mingw32/15.2.0/../../../../lib/libmsvcrt.a(libapi-ms-win-crt-stdio-l1-1-0t.o)
 .idata$4       0x0000000140009278        0x0 D:/code_and_stuff/tools/mingw/ucrt64/bin/../lib/gcc/x86_64-w64-mingw32/15.2.0/../../../../lib/libmsvcrt.a(libapi-ms-win-crt-string-l1-1-0h.o)
 .idata$4       0x0000000140009278        0x8 D:/code_and_stuff/tools/mingw/ucrt64/bin/../lib/gcc/x86_64-w64-mingw32/15.2.0/../../../../lib/libmsvcrt.a(libapi-ms-win-crt-string-l1-1-0s00138.o)
 .idata$4       0x0000000140009280        0x8 D:/code_and_stuff/tools/mingw/ucrt64/bin/../lib/gcc/x86_64-w64-mingw32/15.2.0/../../../../lib/libmsvcrt.a(libapi-ms-win-crt-string-l1-1-0s00162.o)
 .idata$4       0x0000000140009288        0x8 D:/code_and_stuff/tools/mingw/ucrt64/bin/../lib/gcc/x86_64-w64-mingw32/15.2.0/../../../../lib/libmsvcrt.a(libapi-ms-win-crt-string-l1-1-0s00164.o)
 .idata$4       0x0000000140009290        0x8 D:/code_and_stuff/tools/mingw/ucrt64/bin/../lib/gcc/x86_64-w64-mingw32/15.2.0/../../../../lib/libmsvcrt.a(libapi-ms-win-crt-string-l1-1-0s00167.o)
 .idata$4       0x0000000140009298        0x8 D:/code_and_stuff/tools/mingw/ucrt64/bin/../lib/gcc/x86_64-w64-mingw32/15.2.0/../../../../lib/libmsvcrt.a(libapi-ms-win-crt-string-l1-1-0s00170.o)
 .idata$4       0x00000001400092a0        0x8 D:/code_and_stuff/tools/mingw/ucrt64/bin/../lib/gcc/x86_64-w64-mingw32/15.2.0/../../../../lib/libmsvcrt.a(libapi-ms-win-crt-string-l1-1-0s00176.o)
 .idata$4       0x00000001400092a8        0x8 D:/code_and_stuff/tools/mingw/ucrt64/bin/../lib/gcc/x86_64-w64-mingw32/15.2.0/../../../../lib/libmsvcrt.a(libapi-ms-win-crt-string-l1-1-0t.o)
                0x00000001400092b0                __IAT_start__ = .
 SORT_BY_NAME(*)(.idata$5)
 .idata$5       0x00000001400092b0        0x0 D:/code_and_stuff/tools/mingw/ucrt64/bin/../lib/gcc/x86_64-w64-mingw32/15.2.0/../../../../lib/libkernel32.a(libkernel32h.o)
 .idata$5       0x00000001400092b0        0x8 D:/code_and_stuff/tools/mingw/ucrt64/bin/../lib/gcc/x86_64-w64-mingw32/15.2.0/../../../../lib/libkernel32.a(libkernel32s00295.o)
                0x00000001400092b0                __imp_DeleteCriticalSection
 .idata$5       0x00000001400092b8        0x8 D:/code_and_stuff/tools/mingw/ucrt64/bin/../lib/gcc/x86_64-w64-mingw32/15.2.0/../../../../lib/libkernel32.a(libkernel32s00333.o)
                0x00000001400092b8                __imp_EnterCriticalSection
 .idata$5       0x00000001400092c0        0x8 D:/code_and_stuff/tools/mingw/ucrt64/bin/../lib/gcc/x86_64-w64-mingw32/15.2.0/../../../../lib/libkernel32.a(libkernel32s00648.o)
                0x00000001400092c0                __imp_GetLastError
 .idata$5       0x00000001400092c8        0x8 D:/code_and_stuff/tools/mingw/ucrt64/bin/../lib/gcc/x86_64-w64-mingw32/15.2.0/../../../../lib/libkernel32.a(libkernel32s00918.o)
                0x00000001400092c8                __imp_InitializeCriticalSection
 .idata$5       0x00000001400092d0        0x8 D:/code_and_stuff/tools/mingw/ucrt64/bin/../lib/gcc/x86_64-w64-mingw32/15.2.0/../../../../lib/libkernel32.a(libkernel32s01012.o)
                0x00000001400092d0                __imp_LeaveCriticalSection
 .idata$5       0x00000001400092d8        0x8 D:/code_and_stuff/tools/mingw/ucrt64/bin/../lib/gcc/x86_64-w64-mingw32/15.2.0/../../../../lib/libkernel32.a(libkernel32s01433.o)
                0x00000001400092d8                __imp_SetUnhandledExceptionFilter
 .idata$5       0x00000001400092e0        0x8 D:/code_and_stuff/tools/mingw/ucrt64/bin/../lib/gcc/x86_64-w64-mingw32/15.2.0/../../../../lib/libkernel32.a(libkernel32s01449.o)
                0x00000001400092e0                __imp_Sleep
 .idata$5       0x00000001400092e8        0x8 D:/code_and_stuff/tools/mingw/ucrt64/bin/../lib/gcc/x86_64-w64-mingw32/15.2.0/../../../../lib/libkernel32.a(libkernel32s01485.o)
                0x00000001400092e8                __imp_TlsGetValue
 .idata$5       0x00000001400092f0        0x8 D:/code_and_stuff/tools/mingw/ucrt64/bin/../lib/gcc/x86_64-w64-mingw32/15.2.0/../../../../lib/libkernel32.a(libkernel32s01533.o)
                0x00000001400092f0                __imp_VirtualProtect
 .idata$5       0x00000001400092f8        0x8 D:/code_and_stuff/tools/mingw/ucrt64/bin/../lib/gcc/x86_64-w64-mingw32/15.2.0/../../../../lib/libkernel32.a(libkernel32s01535.o)
                0x00000001400092f8                __imp_VirtualQuery
 .idata$5       0x0000000140009300        0x8 D:/code_and_stuff/tools/mingw/ucrt64/bin/../lib/gcc/x86_64-w64-mingw32/15.2.0/../../../../lib/libkernel32.a(libkernel32t.o)
 .idata$5       0x0000000140009308        0x0 D:/code_and_stuff/tools/mingw/ucrt64/bin/../lib/gcc/x86_64-w64-mingw32/15.2.0/../../../../lib/libmsvcrt.a(libapi-ms-win-crt-environment-l1-1-0h.o)
 .idata$5       0x0000000140009308        0x8 D:/code_and_stuff/tools/mingw/ucrt64/bin/../lib/gcc/x86_64-w64-mingw32/15.2.0/../../../../lib/libmsvcrt.a(libapi-ms-win-crt-environment-l1-1-0s00000.o)
                0x0000000140009308                __imp___p__environ
 .idata$5       0x0000000140009310        0x8 D:/code_and_stuff/tools/mingw/ucrt64/bin/../lib/gcc/x86_64-w64-mingw32/15.2.0/../../../../lib/libmsvcrt.a(libapi-ms-win-crt-environment-l1-1-0t.o)
 .idata$5       0x0000000140009318        0x0 D:/code_and_stuff/tools/mingw/ucrt64/bin/../lib/gcc/x86_64-w64-mingw32/15.2.0/../../../../lib/libmsvcrt.a(libapi-ms-win-crt-heap-l1-1-0h.o)
 .idata$5       0x0000000140009318        0x8 D:/code_and_stuff/tools/mingw/ucrt64/bin/../lib/gcc/x86_64-w64-mingw32/15.2.0/../../../../lib/libmsvcrt.a(libapi-ms-win-crt-heap-l1-1-0s00023.o)
                0x0000000140009318                __imp__set_new_mode
 .idata$5       0x0000000140009320        0x8 D:/code_and_stuff/tools/mingw/ucrt64/bin/../lib/gcc/x86_64-w64-mingw32/15.2.0/../../../../lib/libmsvcrt.a(libapi-ms-win-crt-heap-l1-1-0s00024.o)
                0x0000000140009320                __imp_calloc
 .idata$5       0x0000000140009328        0x8 D:/code_and_stuff/tools/mingw/ucrt64/bin/../lib/gcc/x86_64-w64-mingw32/15.2.0/../../../../lib/libmsvcrt.a(libapi-ms-win-crt-heap-l1-1-0s00025.o)
                0x0000000140009328                __imp_free
 .idata$5       0x0000000140009330        0x8 D:/code_and_stuff/tools/mingw/ucrt64/bin/../lib/gcc/x86_64-w64-mingw32/15.2.0/../../../../lib/libmsvcrt.a(libapi-ms-win-crt-heap-l1-1-0s00026.o)
                0x0000000140009330                __imp_malloc
 .idata$5       0x0000000140009338        0x8 D:/code_and_stuff/tools/mingw/ucrt64/bin/../lib/gcc/x86_64-w64-mingw32/15.2.0/../../../../lib/libmsvcrt.a(libapi-ms-win-crt-heap-l1-1-0s00027.o)
                0x0000000140009338                __imp_realloc
 .idata$5       0x0000000140009340        0x8 D:/code_and_stuff/tools/mingw/ucrt64/bin/../lib/gcc/x86_64-w64-mingw32/15.2.0/../../../../lib/libmsvcrt.a(libapi-ms-win-crt-heap-l1-1-0t.o)
 .idata$5       0x0000000140009348        0x0 D:/code_and_stuff/tools/mingw/ucrt64/bin/../lib/gcc/x86_64-w64-mingw32/15.2.0/../../../../lib/libmsvcrt.a(libapi-ms-win-crt-locale-l1-1-0h.o)
 .idata$5       0x0000000140009348        0x8 D:/code_and_stuff/tools/mingw/ucrt64/bin/../lib/gcc/x86_64-w64-mingw32/15.2.0/../../../../lib/libmsvcrt.a(libapi-ms-win-crt-locale-l1-1-0s00009.o)
                0x0000000140009348                __imp__configthreadlocale
 .idata$5       0x0000000140009350        0x8 D:/code_and_stuff/tools/mingw/ucrt64/bin/../lib/gcc/x86_64-w64-mingw32/15.2.0/../../../../lib/libmsvcrt.a(libapi-ms-win-crt-locale-l1-1-0t.o)
 .idata$5       0x0000000140009358        0x0 D:/code_and_stuff/tools/mingw/ucrt64/bin/../lib/gcc/x86_64-w64-mingw32/15.2.0/../../../../lib/libmsvcrt.a(libapi-ms-win-crt-math-l1-1-0h.o)
 .idata$5       0x0000000140009358        0x8 D:/code_and_stuff/tools/mingw/ucrt64/bin/../lib/gcc/x86_64-w64-mingw32/15.2.0/../../../../lib/libmsvcrt.a(libapi-ms-win-crt-math-l1-1-0s00009.o)
                0x0000000140009358                __imp___setusermatherr
 .idata$5       0x0000000140009360        0x8 D:/code_and_stuff/tools/mingw/ucrt64/bin/../lib/gcc/x86_64-w64-mingw32/15.2.0/../../../../lib/libmsvcrt.a(libapi-ms-win-crt-math-l1-1-0t.o)
 .idata$5       0x0000000140009368        0x0 D:/code_and_stuff/tools/mingw/ucrt64/bin/../lib/gcc/x86_64-w64-mingw32/15.2.0/../../../../lib/libmsvcrt.a(libapi-ms-win-crt-private-l1-1-0h.o)
 .idata$5       0x0000000140009368        0x8 D:/code_and_stuff/tools/mingw/ucrt64/bin/../lib/gcc/x86_64-w64-mingw32/15.2.0/../../../../lib/libmsvcrt.a(libapi-ms-win-crt-private-l1-1-0s00012.o)
                0x0000000140009368                __imp___C_specific_handler
 .idata$5       0x0000000140009370        0x8 D:/code_and_stuff/tools/mingw/ucrt64/bin/../lib/gcc/x86_64-w64-mingw32/15.2.0/../../../../lib/libmsvcrt.a(libapi-ms-win-crt-private-l1-1-0s01088.o)
                0x0000000140009370                __imp_memcpy
 .idata$5       0x0000000140009378        0x8 D:/code_and_stuff/tools/mingw/ucrt64/bin/../lib/gcc/x86_64-w64-mingw32/15.2.0/../../../../lib/libmsvcrt.a(libapi-ms-win-crt-private-l1-1-0t.o)
 .idata$5       0x0000000140009380        0x0 D:/code_and_stuff/tools/mingw/ucrt64/bin/../lib/gcc/x86_64-w64-mingw32/15.2.0/../../../../lib/libmsvcrt.a(libapi-ms-win-crt-runtime-l1-1-0h.o)
 .idata$5       0x0000000140009380        0x8 D:/code_and_stuff/tools/mingw/ucrt64/bin/../lib/gcc/x86_64-w64-mingw32/15.2.0/../../../../lib/libmsvcrt.a(libapi-ms-win-crt-runtime-l1-1-0s00004.o)
                0x0000000140009380                __imp___p___argc
 .idata$5       0x0000000140009388        0x8 D:/code_and_stuff/tools/mingw/ucrt64/bin/../lib/gcc/x86_64-w64-mingw32/15.2.0/../../../../lib/libmsvcrt.a(libapi-ms-win-crt-runtime-l1-1-0s00005.o)
                0x0000000140009388                __imp___p___argv
 .idata$5       0x0000000140009390        0x8 D:/code_and_stuff/tools/mingw/ucrt64/bin/../lib/gcc/x86_64-w64-mingw32/15.2.0/../../../../lib/libmsvcrt.a(libapi-ms-win-crt-runtime-l1-1-0s00022.o)
                0x0000000140009390                __imp__cexit
 .idata$5       0x0000000140009398        0x8 D:/code_and_stuff/tools/mingw/ucrt64/bin/../lib/gcc/x86_64-w64-mingw32/15.2.0/../../../../lib/libmsvcrt.a(libapi-ms-win-crt-runtime-l1-1-0s00024.o)
                0x0000000140009398                __imp__configure_narrow_argv
 .idata$5       0x00000001400093a0        0x8 D:/code_and_stuff/tools/mingw/ucrt64/bin/../lib/gcc/x86_64-w64-mingw32/15.2.0/../../../../lib/libmsvcrt.a(libapi-ms-win-crt-runtime-l1-1-0s00030.o)
                0x00000001400093a0                __imp__crt_atexit
 .idata$5       0x00000001400093a8        0x8 D:/code_and_stuff/tools/mingw/ucrt64/bin/../lib/gcc/x86_64-w64-mingw32/15.2.0/../../../../lib/libmsvcrt.a(libapi-ms-win-crt-runtime-l1-1-0s00035.o)
                0x00000001400093a8                __imp__exit
 .idata$5       0x00000001400093b0        0x8 D:/code_and_stuff/tools/mingw/ucrt64/bin/../lib/gcc/x86_64-w64-mingw32/15.2.0/../../../../lib/libmsvcrt.a(libapi-ms-win-crt-runtime-l1-1-0s00051.o)
                0x00000001400093b0                __imp__initialize_narrow_environment
 .idata$5       0x00000001400093b8        0x8 D:/code_and_stuff/tools/mingw/ucrt64/bin/../lib/gcc/x86_64-w64-mingw32/15.2.0/../../../../lib/libmsvcrt.a(libapi-ms-win-crt-runtime-l1-1-0s00054.o)
                0x00000001400093b8                __imp___set_app_type
 .idata$5       0x00000001400093c0        0x8 D:/code_and_stuff/tools/mingw/ucrt64/bin/../lib/gcc/x86_64-w64-mingw32/15.2.0/../../../../lib/libmsvcrt.a(libapi-ms-win-crt-runtime-l1-1-0s00056.o)
                0x00000001400093c0                __imp__initterm
 .idata$5       0x00000001400093c8        0x8 D:/code_and_stuff/tools/mingw/ucrt64/bin/../lib/gcc/x86_64-w64-mingw32/15.2.0/../../../../lib/libmsvcrt.a(libapi-ms-win-crt-runtime-l1-1-0s00057.o)
                0x00000001400093c8                __imp__initterm_e
 .idata$5       0x00000001400093d0        0x8 D:/code_and_stuff/tools/mingw/ucrt64/bin/../lib/gcc/x86_64-w64-mingw32/15.2.0/../../../../lib/libmsvcrt.a(libapi-ms-win-crt-runtime-l1-1-0s00073.o)
                0x00000001400093d0                __imp__set_invalid_parameter_handler
 .idata$5       0x00000001400093d8        0x8 D:/code_and_stuff/tools/mingw/ucrt64/bin/../lib/gcc/x86_64-w64-mingw32/15.2.0/../../../../lib/libmsvcrt.a(libapi-ms-win-crt-runtime-l1-1-0s00086.o)
                0x00000001400093d8                __imp_abort
 .idata$5       0x00000001400093e0        0x8 D:/code_and_stuff/tools/mingw/ucrt64/bin/../lib/gcc/x86_64-w64-mingw32/15.2.0/../../../../lib/libmsvcrt.a(libapi-ms-win-crt-runtime-l1-1-0s00087.o)
                0x00000001400093e0                __imp_exit
 .idata$5       0x00000001400093e8        0x8 D:/code_and_stuff/tools/mingw/ucrt64/bin/../lib/gcc/x86_64-w64-mingw32/15.2.0/../../../../lib/libmsvcrt.a(libapi-ms-win-crt-runtime-l1-1-0s00101.o)
                0x00000001400093e8                __imp_signal
 .idata$5       0x00000001400093f0        0x8 D:/code_and_stuff/tools/mingw/ucrt64/bin/../lib/gcc/x86_64-w64-mingw32/15.2.0/../../../../lib/libmsvcrt.a(libapi-ms-win-crt-runtime-l1-1-0t.o)
 .idata$5       0x00000001400093f8        0x0 D:/code_and_stuff/tools/mingw/ucrt64/bin/../lib/gcc/x86_64-w64-mingw32/15.2.0/../../../../lib/libmsvcrt.a(libapi-ms-win-crt-stdio-l1-1-0h.o)
 .idata$5       0x00000001400093f8        0x8 D:/code_and_stuff/tools/mingw/ucrt64/bin/../lib/gcc/x86_64-w64-mingw32/15.2.0/../../../../lib/libmsvcrt.a(libapi-ms-win-crt-stdio-l1-1-0s00000.o)
                0x00000001400093f8                __imp___acrt_iob_func
 .idata$5       0x0000000140009400        0x8 D:/code_and_stuff/tools/mingw/ucrt64/bin/../lib/gcc/x86_64-w64-mingw32/15.2.0/../../../../lib/libmsvcrt.a(libapi-ms-win-crt-stdio-l1-1-0s00001.o)
                0x0000000140009400                __imp___p__commode
 .idata$5       0x0000000140009408        0x8 D:/code_and_stuff/tools/mingw/ucrt64/bin/../lib/gcc/x86_64-w64-mingw32/15.2.0/../../../../lib/libmsvcrt.a(libapi-ms-win-crt-stdio-l1-1-0s00002.o)
                0x0000000140009408                __imp___p__fmode
 .idata$5       0x0000000140009410        0x8 D:/code_and_stuff/tools/mingw/ucrt64/bin/../lib/gcc/x86_64-w64-mingw32/15.2.0/../../../../lib/libmsvcrt.a(libapi-ms-win-crt-stdio-l1-1-0s00003.o)
                0x0000000140009410                __imp___stdio_common_vfprintf
 .idata$5       0x0000000140009418        0x8 D:/code_and_stuff/tools/mingw/ucrt64/bin/../lib/gcc/x86_64-w64-mingw32/15.2.0/../../../../lib/libmsvcrt.a(libapi-ms-win-crt-stdio-l1-1-0s00006.o)
                0x0000000140009418                __imp___stdio_common_vfscanf
 .idata$5       0x0000000140009420        0x8 D:/code_and_stuff/tools/mingw/ucrt64/bin/../lib/gcc/x86_64-w64-mingw32/15.2.0/../../../../lib/libmsvcrt.a(libapi-ms-win-crt-stdio-l1-1-0s00152.o)
                0x0000000140009420                __imp_fclose
 .idata$5       0x0000000140009428        0x8 D:/code_and_stuff/tools/mingw/ucrt64/bin/../lib/gcc/x86_64-w64-mingw32/15.2.0/../../../../lib/libmsvcrt.a(libapi-ms-win-crt-stdio-l1-1-0s00156.o)
                0x0000000140009428                __imp_fgetc
 .idata$5       0x0000000140009430        0x8 D:/code_and_stuff/tools/mingw/ucrt64/bin/../lib/gcc/x86_64-w64-mingw32/15.2.0/../../../../lib/libmsvcrt.a(libapi-ms-win-crt-stdio-l1-1-0s00159.o)
                0x0000000140009430                __imp_fgets
 .idata$5       0x0000000140009438        0x8 D:/code_and_stuff/tools/mingw/ucrt64/bin/../lib/gcc/x86_64-w64-mingw32/15.2.0/../../../../lib/libmsvcrt.a(libapi-ms-win-crt-stdio-l1-1-0s00162.o)
                0x0000000140009438                __imp_fopen
 .idata$5       0x0000000140009440        0x8 D:/code_and_stuff/tools/mingw/ucrt64/bin/../lib/gcc/x86_64-w64-mingw32/15.2.0/../../../../lib/libmsvcrt.a(libapi-ms-win-crt-stdio-l1-1-0s00179.o)
                0x0000000140009440                __imp_fwrite
 .idata$5       0x0000000140009448        0x8 D:/code_and_stuff/tools/mingw/ucrt64/bin/../lib/gcc/x86_64-w64-mingw32/15.2.0/../../../../lib/libmsvcrt.a(libapi-ms-win-crt-stdio-l1-1-0s00188.o)
                0x0000000140009448                __imp_putchar
 .idata$5       0x0000000140009450        0x8 D:/code_and_stuff/tools/mingw/ucrt64/bin/../lib/gcc/x86_64-w64-mingw32/15.2.0/../../../../lib/libmsvcrt.a(libapi-ms-win-crt-stdio-l1-1-0s00189.o)
                0x0000000140009450                __imp_puts
 .idata$5       0x0000000140009458        0x8 D:/code_and_stuff/tools/mingw/ucrt64/bin/../lib/gcc/x86_64-w64-mingw32/15.2.0/../../../../lib/libmsvcrt.a(libapi-ms-win-crt-stdio-l1-1-0t.o)
 .idata$5       0x0000000140009460        0x0 D:/code_and_stuff/tools/mingw/ucrt64/bin/../lib/gcc/x86_64-w64-mingw32/15.2.0/../../../../lib/libmsvcrt.a(libapi-ms-win-crt-string-l1-1-0h.o)
 .idata$5       0x0000000140009460        0x8 D:/code_and_stuff/tools/mingw/ucrt64/bin/../lib/gcc/x86_64-w64-mingw32/15.2.0/../../../../lib/libmsvcrt.a(libapi-ms-win-crt-string-l1-1-0s00138.o)
                0x0000000140009460                __imp_isspace
 .idata$5       0x0000000140009468        0x8 D:/code_and_stuff/tools/mingw/ucrt64/bin/../lib/gcc/x86_64-w64-mingw32/15.2.0/../../../../lib/libmsvcrt.a(libapi-ms-win-crt-string-l1-1-0s00162.o)
                0x0000000140009468                __imp_strcmp
 .idata$5       0x0000000140009470        0x8 D:/code_and_stuff/tools/mingw/ucrt64/bin/../lib/gcc/x86_64-w64-mingw32/15.2.0/../../../../lib/libmsvcrt.a(libapi-ms-win-crt-string-l1-1-0s00164.o)
                0x0000000140009470                __imp_strcpy
 .idata$5       0x0000000140009478        0x8 D:/code_and_stuff/tools/mingw/ucrt64/bin/../lib/gcc/x86_64-w64-mingw32/15.2.0/../../../../lib/libmsvcrt.a(libapi-ms-win-crt-string-l1-1-0s00167.o)
                0x0000000140009478                __imp_strlen
 .idata$5       0x0000000140009480        0x8 D:/code_and_stuff/tools/mingw/ucrt64/bin/../lib/gcc/x86_64-w64-mingw32/15.2.0/../../../../lib/libmsvcrt.a(libapi-ms-win-crt-string-l1-1-0s00170.o)
                0x0000000140009480                __imp_strncmp
 .idata$5       0x0000000140009488        0x8 D:/code_and_stuff/tools/mingw/ucrt64/bin/../lib/gcc/x86_64-w64-mingw32/15.2.0/../../../../lib/libmsvcrt.a(libapi-ms-win-crt-string-l1-1-0s00176.o)
                0x0000000140009488                __imp_strtok
 .idata$5       0x0000000140009490        0x8 D:/code_and_stuff/tools/mingw/ucrt64/bin/../lib/gcc/x86_64-w64-mingw32/15.2.0/../../../../lib/libmsvcrt.a(libapi-ms-win-crt-string-l1-1-0t.o)
                0x0000000140009498                __IAT_end__ = .
 SORT_BY_NAME(*)(.idata$6)
 .idata$6       0x0000000140009498       0x18 D:/code_and_stuff/tools/mingw/ucrt64/bin/../lib/gcc/x86_64-w64-mingw32/15.2.0/../../../../lib/libkernel32.a(libkernel32s00295.o)
 .idata$6       0x00000001400094b0       0x18 D:/code_and_stuff/tools/mingw/ucrt64/bin/../lib/gcc/x86_64-w64-mingw32/15.2.0/../../../../lib/libkernel32.a(libkernel32s00333.o)
 .idata$6       0x00000001400094c8       0x10 D:/code_and_stuff/tools/mingw/ucrt64/bin/../lib/gcc/x86_64-w64-mingw32/15.2.0/../../../../lib/libkernel32.a(libkernel32s00648.o)
 .idata$6       0x00000001400094d8       0x1c D:/code_and_stuff/tools/mingw/ucrt64/bin/../lib/gcc/x86_64-w64-mingw32/15.2.0/../../../../lib/libkernel32.a(libkernel32s00918.o)
 .idata$6       0x00000001400094f4       0x18 D:/code_and_stuff/tools/mingw/ucrt64/bin/../lib/gcc/x86_64-w64-mingw32/15.2.0/../../../../lib/libkernel32.a(libkernel32s01012.o)
 .idata$6       0x000000014000950c       0x1e D:/code_and_stuff/tools/mingw/ucrt64/bin/../lib/gcc/x86_64-w64-mingw32/15.2.0/../../../../lib/libkernel32.a(libkernel32s01433.o)
 .idata$6       0x000000014000952a        0x8 D:/code_and_stuff/tools/mingw/ucrt64/bin/../lib/gcc/x86_64-w64-mingw32/15.2.0/../../../../lib/libkernel32.a(libkernel32s01449.o)
 .idata$6       0x0000000140009532        0xe D:/code_and_stuff/tools/mingw/ucrt64/bin/../lib/gcc/x86_64-w64-mingw32/15.2.0/../../../../lib/libkernel32.a(libkernel32s01485.o)
 .idata$6       0x0000000140009540       0x12 D:/code_and_stuff/tools/mingw/ucrt64/bin/../lib/gcc/x86_64-w64-mingw32/15.2.0/../../../../lib/libkernel32.a(libkernel32s01533.o)
 .idata$6       0x0000000140009552       0x10 D:/code_and_stuff/tools/mingw/ucrt64/bin/../lib/gcc/x86_64-w64-mingw32/15.2.0/../../../../lib/libkernel32.a(libkernel32s01535.o)
 .idata$6       0x0000000140009562       0x10 D:/code_and_stuff/tools/mingw/ucrt64/bin/../lib/gcc/x86_64-w64-mingw32/15.2.0/../../../../lib/libmsvcrt.a(libapi-ms-win-crt-environment-l1-1-0s00000.o)
 .idata$6       0x0000000140009572       0x10 D:/code_and_stuff/tools/mingw/ucrt64/bin/../lib/gcc/x86_64-w64-mingw32/15.2.0/../../../../lib/libmsvcrt.a(libapi-ms-win-crt-heap-l1-1-0s00023.o)
 .idata$6       0x0000000140009582        0xa D:/code_and_stuff/tools/mingw/ucrt64/bin/../lib/gcc/x86_64-w64-mingw32/15.2.0/../../../../lib/libmsvcrt.a(libapi-ms-win-crt-heap-l1-1-0s00024.o)
 .idata$6       0x000000014000958c        0x8 D:/code_and_stuff/tools/mingw/ucrt64/bin/../lib/gcc/x86_64-w64-mingw32/15.2.0/../../../../lib/libmsvcrt.a(libapi-ms-win-crt-heap-l1-1-0s00025.o)
 .idata$6       0x0000000140009594        0xa D:/code_and_stuff/tools/mingw/ucrt64/bin/../lib/gcc/x86_64-w64-mingw32/15.2.0/../../../../lib/libmsvcrt.a(libapi-ms-win-crt-heap-l1-1-0s00026.o)
 .idata$6       0x000000014000959e        0xa D:/code_and_stuff/tools/mingw/ucrt64/bin/../lib/gcc/x86_64-w64-mingw32/15.2.0/../../../../lib/libmsvcrt.a(libapi-ms-win-crt-heap-l1-1-0s00027.o)
 .idata$6       0x00000001400095a8       0x16 D:/code_and_stuff/tools/mingw/ucrt64/bin/../lib/gcc/x86_64-w64-mingw32/15.2.0/../../../../lib/libmsvcrt.a(libapi-ms-win-crt-locale-l1-1-0s00009.o)
 .idata$6       0x00000001400095be       0x14 D:/code_and_stuff/tools/mingw/ucrt64/bin/../lib/gcc/x86_64-w64-mingw32/15.2.0/../../../../lib/libmsvcrt.a(libapi-ms-win-crt-math-l1-1-0s00009.o)
 .idata$6       0x00000001400095d2       0x18 D:/code_and_stuff/tools/mingw/ucrt64/bin/../lib/gcc/x86_64-w64-mingw32/15.2.0/../../../../lib/libmsvcrt.a(libapi-ms-win-crt-private-l1-1-0s00012.o)
 .idata$6       0x00000001400095ea        0xa D:/code_and_stuff/tools/mingw/ucrt64/bin/../lib/gcc/x86_64-w64-mingw32/15.2.0/../../../../lib/libmsvcrt.a(libapi-ms-win-crt-private-l1-1-0s01088.o)
 .idata$6       0x00000001400095f4        0xe D:/code_and_stuff/tools/mingw/ucrt64/bin/../lib/gcc/x86_64-w64-mingw32/15.2.0/../../../../lib/libmsvcrt.a(libapi-ms-win-crt-runtime-l1-1-0s00004.o)
 .idata$6       0x0000000140009602        0xe D:/code_and_stuff/tools/mingw/ucrt64/bin/../lib/gcc/x86_64-w64-mingw32/15.2.0/../../../../lib/libmsvcrt.a(libapi-ms-win-crt-runtime-l1-1-0s00005.o)
 .idata$6       0x0000000140009610        0xa D:/code_and_stuff/tools/mingw/ucrt64/bin/../lib/gcc/x86_64-w64-mingw32/15.2.0/../../../../lib/libmsvcrt.a(libapi-ms-win-crt-runtime-l1-1-0s00022.o)
 .idata$6       0x000000014000961a       0x1a D:/code_and_stuff/tools/mingw/ucrt64/bin/../lib/gcc/x86_64-w64-mingw32/15.2.0/../../../../lib/libmsvcrt.a(libapi-ms-win-crt-runtime-l1-1-0s00024.o)
 .idata$6       0x0000000140009634        0xe D:/code_and_stuff/tools/mingw/ucrt64/bin/../lib/gcc/x86_64-w64-mingw32/15.2.0/../../../../lib/libmsvcrt.a(libapi-ms-win-crt-runtime-l1-1-0s00030.o)
 .idata$6       0x0000000140009642        0x8 D:/code_and_stuff/tools/mingw/ucrt64/bin/../lib/gcc/x86_64-w64-mingw32/15.2.0/../../../../lib/libmsvcrt.a(libapi-ms-win-crt-runtime-l1-1-0s00035.o)
 .idata$6       0x000000014000964a       0x22 D:/code_and_stuff/tools/mingw/ucrt64/bin/../lib/gcc/x86_64-w64-mingw32/15.2.0/../../../../lib/libmsvcrt.a(libapi-ms-win-crt-runtime-l1-1-0s00051.o)
 .idata$6       0x000000014000966c       0x10 D:/code_and_stuff/tools/mingw/ucrt64/bin/../lib/gcc/x86_64-w64-mingw32/15.2.0/../../../../lib/libmsvcrt.a(libapi-ms-win-crt-runtime-l1-1-0s00054.o)
 .idata$6       0x000000014000967c        0xc D:/code_and_stuff/tools/mingw/ucrt64/bin/../lib/gcc/x86_64-w64-mingw32/15.2.0/../../../../lib/libmsvcrt.a(libapi-ms-win-crt-runtime-l1-1-0s00056.o)
 .idata$6       0x0000000140009688        0xe D:/code_and_stuff/tools/mingw/ucrt64/bin/../lib/gcc/x86_64-w64-mingw32/15.2.0/../../../../lib/libmsvcrt.a(libapi-ms-win-crt-runtime-l1-1-0s00057.o)
 .idata$6       0x0000000140009696       0x22 D:/code_and_stuff/tools/mingw/ucrt64/bin/../lib/gcc/x86_64-w64-mingw32/15.2.0/../../../../lib/libmsvcrt.a(libapi-ms-win-crt-runtime-l1-1-0s00073.o)
 .idata$6       0x00000001400096b8        0x8 D:/code_and_stuff/tools/mingw/ucrt64/bin/../lib/gcc/x86_64-w64-mingw32/15.2.0/../../../../lib/libmsvcrt.a(libapi-ms-win-crt-runtime-l1-1-0s00086.o)
 .idata$6       0x00000001400096c0        0x8 D:/code_and_stuff/tools/mingw/ucrt64/bin/../lib/gcc/x86_64-w64-mingw32/15.2.0/../../../../lib/libmsvcrt.a(libapi-ms-win-crt-runtime-l1-1-0s00087.o)
 .idata$6       0x00000001400096c8        0xa D:/code_and_stuff/tools/mingw/ucrt64/bin/../lib/gcc/x86_64-w64-mingw32/15.2.0/../../../../lib/libmsvcrt.a(libapi-ms-win-crt-runtime-l1-1-0s00101.o)
 .idata$6       0x00000001400096d2       0x12 D:/code_and_stuff/tools/mingw/ucrt64/bin/../lib/gcc/x86_64-w64-mingw32/15.2.0/../../../../lib/libmsvcrt.a(libapi-ms-win-crt-stdio-l1-1-0s00000.o)
 .idata$6       0x00000001400096e4       0x10 D:/code_and_stuff/tools/mingw/ucrt64/bin/../lib/gcc/x86_64-w64-mingw32/15.2.0/../../../../lib/libmsvcrt.a(libapi-ms-win-crt-stdio-l1-1-0s00001.o)
 .idata$6       0x00000001400096f4        0xe D:/code_and_stuff/tools/mingw/ucrt64/bin/../lib/gcc/x86_64-w64-mingw32/15.2.0/../../../../lib/libmsvcrt.a(libapi-ms-win-crt-stdio-l1-1-0s00002.o)
 .idata$6       0x0000000140009702       0x1a D:/code_and_stuff/tools/mingw/ucrt64/bin/../lib/gcc/x86_64-w64-mingw32/15.2.0/../../../../lib/libmsvcrt.a(libapi-ms-win-crt-stdio-l1-1-0s00003.o)
 .idata$6       0x000000014000971c       0x1a D:/code_and_stuff/tools/mingw/ucrt64/bin/../lib/gcc/x86_64-w64-mingw32/15.2.0/../../../../lib/libmsvcrt.a(libapi-ms-win-crt-stdio-l1-1-0s00006.o)
 .idata$6       0x0000000140009736        0xa D:/code_and_stuff/tools/mingw/ucrt64/bin/../lib/gcc/x86_64-w64-mingw32/15.2.0/../../../../lib/libmsvcrt.a(libapi-ms-win-crt-stdio-l1-1-0s00152.o)
 .idata$6       0x0000000140009740        0x8 D:/code_and_stuff/tools/mingw/ucrt64/bin/../lib/gcc/x86_64-w64-mingw32/15.2.0/../../../../lib/libmsvcrt.a(libapi-ms-win-crt-stdio-l1-1-0s00156.o)
 .idata$6       0x0000000140009748        0x8 D:/code_and_stuff/tools/mingw/ucrt64/bin/../lib/gcc/x86_64-w64-mingw32/15.2.0/../../../../lib/libmsvcrt.a(libapi-ms-win-crt-stdio-l1-1-0s00159.o)
 .idata$6       0x0000000140009750        0x8 D:/code_and_stuff/tools/mingw/ucrt64/bin/../lib/gcc/x86_64-w64-mingw32/15.2.0/../../../../lib/libmsvcrt.a(libapi-ms-win-crt-stdio-l1-1-0s00162.o)
 .idata$6       0x0000000140009758        0xa D:/code_and_stuff/tools/mingw/ucrt64/bin/../lib/gcc/x86_64-w64-mingw32/15.2.0/../../../../lib/libmsvcrt.a(libapi-ms-win-crt-stdio-l1-1-0s00179.o)
 .idata$6       0x0000000140009762        0xa D:/code_and_stuff/tools/mingw/ucrt64/bin/../lib/gcc/x86_64-w64-mingw32/15.2.0/../../../../lib/libmsvcrt.a(libapi-ms-win-crt-stdio-l1-1-0s00188.o)
 .idata$6       0x000000014000976c        0x8 D:/code_and_stuff/tools/mingw/ucrt64/bin/../lib/gcc/x86_64-w64-mingw32/15.2.0/../../../../lib/libmsvcrt.a(libapi-ms-win-crt-stdio-l1-1-0s00189.o)
 .idata$6       0x0000000140009774        0xa D:/code_and_stuff/tools/mingw/ucrt64/bin/../lib/gcc/x86_64-w64-mingw32/15.2.0/../../../../lib/libmsvcrt.a(libapi-ms-win-crt-string-l1-1-0s00138.o)
 .idata$6       0x000000014000977e        0xa D:/code_and_stuff/tools/mingw/ucrt64/bin/../lib/gcc/x86_64-w64-mingw32/15.2.0/../../../../lib/libmsvcrt.a(libapi-ms-win-crt-string-l1-1-0s00162.o)
 .idata$6       0x0000000140009788        0xa D:/code_and_stuff/tools/mingw/ucrt64/bin/../lib/gcc/x86_64-w64-mingw32/15.2.0/../../../../lib/libmsvcrt.a(libapi-ms-win-crt-string-l1-1-0s00164.o)
 .idata$6       0x0000000140009792        0xa D:/code_and_stuff/tools/mingw/ucrt64/bin/../lib/gcc/x86_64-w64-mingw32/15.2.0/../../../../lib/libmsvcrt.a(libapi-ms-win-crt-string-l1-1-0s00167.o)
 .idata$6       0x000000014000979c        0xa D:/code_and_stuff/tools/mingw/ucrt64/bin/../lib/gcc/x86_64-w64-mingw32/15.2.0/../../../../lib/libmsvcrt.a(libapi-ms-win-crt-string-l1-1-0s00170.o)
 .idata$6       0x00000001400097a6        0xa D:/code_and_stuff/tools/mingw/ucrt64/bin/../lib/gcc/x86_64-w64-mingw32/15.2.0/../../../../lib/libmsvcrt.a(libapi-ms-win-crt-string-l1-1-0s00176.o)
 SORT_BY_NAME(*)(.idata$7)
 .idata$7       0x00000001400097b0        0x4 D:/code_and_stuff/tools/mingw/ucrt64/bin/../lib/gcc/x86_64-w64-mingw32/15.2.0/../../../../lib/libkernel32.a(libkernel32s00295.o)
 .idata$7       0x00000001400097b4        0x4 D:/code_and_stuff/tools/mingw/ucrt64/bin/../lib/gcc/x86_64-w64-mingw32/15.2.0/../../../../lib/libkernel32.a(libkernel32s00333.o)
 .idata$7       0x00000001400097b8        0x4 D:/code_and_stuff/tools/mingw/ucrt64/bin/../lib/gcc/x86_64-w64-mingw32/15.2.0/../../../../lib/libkernel32.a(libkernel32s00648.o)
 .idata$7       0x00000001400097bc        0x4 D:/code_and_stuff/tools/mingw/ucrt64/bin/../lib/gcc/x86_64-w64-mingw32/15.2.0/../../../../lib/libkernel32.a(libkernel32s00918.o)
 .idata$7       0x00000001400097c0        0x4 D:/code_and_stuff/tools/mingw/ucrt64/bin/../lib/gcc/x86_64-w64-mingw32/15.2.0/../../../../lib/libkernel32.a(libkernel32s01012.o)
 .idata$7       0x00000001400097c4        0x4 D:/code_and_stuff/tools/mingw/ucrt64/bin/../lib/gcc/x86_64-w64-mingw32/15.2.0/../../../../lib/libkernel32.a(libkernel32s01433.o)
 .idata$7       0x00000001400097c8        0x4 D:/code_and_stuff/tools/mingw/ucrt64/bin/../lib/gcc/x86_64-w64-mingw32/15.2.0/../../../../lib/libkernel32.a(libkernel32s01449.o)
 .idata$7       0x00000001400097cc        0x4 D:/code_and_stuff/tools/mingw/ucrt64/bin/../lib/gcc/x86_64-w64-mingw32/15.2.0/../../../../lib/libkernel32.a(libkernel32s01485.o)
 .idata$7       0x00000001400097d0        0x4 D:/code_and_stuff/tools/mingw/ucrt64/bin/../lib/gcc/x86_64-w64-mingw32/15.2.0/../../../../lib/libkernel32.a(libkernel32s01533.o)
 .idata$7       0x00000001400097d4        0x4 D:/code_and_stuff/tools/mingw/ucrt64/bin/../lib/gcc/x86_64-w64-mingw32/15.2.0/../../../../lib/libkernel32.a(libkernel32s01535.o)
 .idata$7       0x00000001400097d8       0x10 D:/code_and_stuff/tools/mingw/ucrt64/bin/../lib/gcc/x86_64-w64-mingw32/15.2.0/../../../../lib/libkernel32.a(libkernel32t.o)
                0x00000001400097d8                __lib64_libkernel32_a_iname
 .idata$7       0x00000001400097e8        0x4 D:/code_and_stuff/tools/mingw/ucrt64/bin/../lib/gcc/x86_64-w64-mingw32/15.2.0/../../../../lib/libmsvcrt.a(libapi-ms-win-crt-environment-l1-1-0s00000.o)
 .idata$7       0x00000001400097ec       0x28 D:/code_and_stuff/tools/mingw/ucrt64/bin/../lib/gcc/x86_64-w64-mingw32/15.2.0/../../../../lib/libmsvcrt.a(libapi-ms-win-crt-environment-l1-1-0t.o)
                0x00000001400097ec                __lib64_libapi_ms_win_crt_environment_l1_1_0_a_iname
 .idata$7       0x0000000140009814        0x4 D:/code_and_stuff/tools/mingw/ucrt64/bin/../lib/gcc/x86_64-w64-mingw32/15.2.0/../../../../lib/libmsvcrt.a(libapi-ms-win-crt-heap-l1-1-0s00023.o)
 .idata$7       0x0000000140009818        0x4 D:/code_and_stuff/tools/mingw/ucrt64/bin/../lib/gcc/x86_64-w64-mingw32/15.2.0/../../../../lib/libmsvcrt.a(libapi-ms-win-crt-heap-l1-1-0s00024.o)
 .idata$7       0x000000014000981c        0x4 D:/code_and_stuff/tools/mingw/ucrt64/bin/../lib/gcc/x86_64-w64-mingw32/15.2.0/../../../../lib/libmsvcrt.a(libapi-ms-win-crt-heap-l1-1-0s00025.o)
 .idata$7       0x0000000140009820        0x4 D:/code_and_stuff/tools/mingw/ucrt64/bin/../lib/gcc/x86_64-w64-mingw32/15.2.0/../../../../lib/libmsvcrt.a(libapi-ms-win-crt-heap-l1-1-0s00026.o)
 .idata$7       0x0000000140009824        0x4 D:/code_and_stuff/tools/mingw/ucrt64/bin/../lib/gcc/x86_64-w64-mingw32/15.2.0/../../../../lib/libmsvcrt.a(libapi-ms-win-crt-heap-l1-1-0s00027.o)
 .idata$7       0x0000000140009828       0x20 D:/code_and_stuff/tools/mingw/ucrt64/bin/../lib/gcc/x86_64-w64-mingw32/15.2.0/../../../../lib/libmsvcrt.a(libapi-ms-win-crt-heap-l1-1-0t.o)
                0x0000000140009828                __lib64_libapi_ms_win_crt_heap_l1_1_0_a_iname
 .idata$7       0x0000000140009848        0x4 D:/code_and_stuff/tools/mingw/ucrt64/bin/../lib/gcc/x86_64-w64-mingw32/15.2.0/../../../../lib/libmsvcrt.a(libapi-ms-win-crt-locale-l1-1-0s00009.o)
 .idata$7       0x000000014000984c       0x24 D:/code_and_stuff/tools/mingw/ucrt64/bin/../lib/gcc/x86_64-w64-mingw32/15.2.0/../../../../lib/libmsvcrt.a(libapi-ms-win-crt-locale-l1-1-0t.o)
                0x000000014000984c                __lib64_libapi_ms_win_crt_locale_l1_1_0_a_iname
 .idata$7       0x0000000140009870        0x4 D:/code_and_stuff/tools/mingw/ucrt64/bin/../lib/gcc/x86_64-w64-mingw32/15.2.0/../../../../lib/libmsvcrt.a(libapi-ms-win-crt-math-l1-1-0s00009.o)
 .idata$7       0x0000000140009874       0x20 D:/code_and_stuff/tools/mingw/ucrt64/bin/../lib/gcc/x86_64-w64-mingw32/15.2.0/../../../../lib/libmsvcrt.a(libapi-ms-win-crt-math-l1-1-0t.o)
                0x0000000140009874                __lib64_libapi_ms_win_crt_math_l1_1_0_a_iname
 .idata$7       0x0000000140009894        0x4 D:/code_and_stuff/tools/mingw/ucrt64/bin/../lib/gcc/x86_64-w64-mingw32/15.2.0/../../../../lib/libmsvcrt.a(libapi-ms-win-crt-private-l1-1-0s00012.o)
 .idata$7       0x0000000140009898        0x4 D:/code_and_stuff/tools/mingw/ucrt64/bin/../lib/gcc/x86_64-w64-mingw32/15.2.0/../../../../lib/libmsvcrt.a(libapi-ms-win-crt-private-l1-1-0s01088.o)
 .idata$7       0x000000014000989c       0x24 D:/code_and_stuff/tools/mingw/ucrt64/bin/../lib/gcc/x86_64-w64-mingw32/15.2.0/../../../../lib/libmsvcrt.a(libapi-ms-win-crt-private-l1-1-0t.o)
                0x000000014000989c                __lib64_libapi_ms_win_crt_private_l1_1_0_a_iname
 .idata$7       0x00000001400098c0        0x4 D:/code_and_stuff/tools/mingw/ucrt64/bin/../lib/gcc/x86_64-w64-mingw32/15.2.0/../../../../lib/libmsvcrt.a(libapi-ms-win-crt-runtime-l1-1-0s00004.o)
 .idata$7       0x00000001400098c4        0x4 D:/code_and_stuff/tools/mingw/ucrt64/bin/../lib/gcc/x86_64-w64-mingw32/15.2.0/../../../../lib/libmsvcrt.a(libapi-ms-win-crt-runtime-l1-1-0s00005.o)
 .idata$7       0x00000001400098c8        0x4 D:/code_and_stuff/tools/mingw/ucrt64/bin/../lib/gcc/x86_64-w64-mingw32/15.2.0/../../../../lib/libmsvcrt.a(libapi-ms-win-crt-runtime-l1-1-0s00022.o)
 .idata$7       0x00000001400098cc        0x4 D:/code_and_stuff/tools/mingw/ucrt64/bin/../lib/gcc/x86_64-w64-mingw32/15.2.0/../../../../lib/libmsvcrt.a(libapi-ms-win-crt-runtime-l1-1-0s00024.o)
 .idata$7       0x00000001400098d0        0x4 D:/code_and_stuff/tools/mingw/ucrt64/bin/../lib/gcc/x86_64-w64-mingw32/15.2.0/../../../../lib/libmsvcrt.a(libapi-ms-win-crt-runtime-l1-1-0s00030.o)
 .idata$7       0x00000001400098d4        0x4 D:/code_and_stuff/tools/mingw/ucrt64/bin/../lib/gcc/x86_64-w64-mingw32/15.2.0/../../../../lib/libmsvcrt.a(libapi-ms-win-crt-runtime-l1-1-0s00035.o)
 .idata$7       0x00000001400098d8        0x4 D:/code_and_stuff/tools/mingw/ucrt64/bin/../lib/gcc/x86_64-w64-mingw32/15.2.0/../../../../lib/libmsvcrt.a(libapi-ms-win-crt-runtime-l1-1-0s00051.o)
 .idata$7       0x00000001400098dc        0x4 D:/code_and_stuff/tools/mingw/ucrt64/bin/../lib/gcc/x86_64-w64-mingw32/15.2.0/../../../../lib/libmsvcrt.a(libapi-ms-win-crt-runtime-l1-1-0s00054.o)
 .idata$7       0x00000001400098e0        0x4 D:/code_and_stuff/tools/mingw/ucrt64/bin/../lib/gcc/x86_64-w64-mingw32/15.2.0/../../../../lib/libmsvcrt.a(libapi-ms-win-crt-runtime-l1-1-0s00056.o)
 .idata$7       0x00000001400098e4        0x4 D:/code_and_stuff/tools/mingw/ucrt64/bin/../lib/gcc/x86_64-w64-mingw32/15.2.0/../../../../lib/libmsvcrt.a(libapi-ms-win-crt-runtime-l1-1-0s00057.o)
 .idata$7       0x00000001400098e8        0x4 D:/code_and_stuff/tools/mingw/ucrt64/bin/../lib/gcc/x86_64-w64-mingw32/15.2.0/../../../../lib/libmsvcrt.a(libapi-ms-win-crt-runtime-l1-1-0s00073.o)
 .idata$7       0x00000001400098ec        0x4 D:/code_and_stuff/tools/mingw/ucrt64/bin/../lib/gcc/x86_64-w64-mingw32/15.2.0/../../../../lib/libmsvcrt.a(libapi-ms-win-crt-runtime-l1-1-0s00086.o)
 .idata$7       0x00000001400098f0        0x4 D:/code_and_stuff/tools/mingw/ucrt64/bin/../lib/gcc/x86_64-w64-mingw32/15.2.0/../../../../lib/libmsvcrt.a(libapi-ms-win-crt-runtime-l1-1-0s00087.o)
 .idata$7       0x00000001400098f4        0x4 D:/code_and_stuff/tools/mingw/ucrt64/bin/../lib/gcc/x86_64-w64-mingw32/15.2.0/../../../../lib/libmsvcrt.a(libapi-ms-win-crt-runtime-l1-1-0s00101.o)
 .idata$7       0x00000001400098f8       0x24 D:/code_and_stuff/tools/mingw/ucrt64/bin/../lib/gcc/x86_64-w64-mingw32/15.2.0/../../../../lib/libmsvcrt.a(libapi-ms-win-crt-runtime-l1-1-0t.o)
                0x00000001400098f8                __lib64_libapi_ms_win_crt_runtime_l1_1_0_a_iname
 .idata$7       0x000000014000991c        0x4 D:/code_and_stuff/tools/mingw/ucrt64/bin/../lib/gcc/x86_64-w64-mingw32/15.2.0/../../../../lib/libmsvcrt.a(libapi-ms-win-crt-stdio-l1-1-0s00000.o)
 .idata$7       0x0000000140009920        0x4 D:/code_and_stuff/tools/mingw/ucrt64/bin/../lib/gcc/x86_64-w64-mingw32/15.2.0/../../../../lib/libmsvcrt.a(libapi-ms-win-crt-stdio-l1-1-0s00001.o)
 .idata$7       0x0000000140009924        0x4 D:/code_and_stuff/tools/mingw/ucrt64/bin/../lib/gcc/x86_64-w64-mingw32/15.2.0/../../../../lib/libmsvcrt.a(libapi-ms-win-crt-stdio-l1-1-0s00002.o)
 .idata$7       0x0000000140009928        0x4 D:/code_and_stuff/tools/mingw/ucrt64/bin/../lib/gcc/x86_64-w64-mingw32/15.2.0/../../../../lib/libmsvcrt.a(libapi-ms-win-crt-stdio-l1-1-0s00003.o)
 .idata$7       0x000000014000992c        0x4 D:/code_and_stuff/tools/mingw/ucrt64/bin/../lib/gcc/x86_64-w64-mingw32/15.2.0/../../../../lib/libmsvcrt.a(libapi-ms-win-crt-stdio-l1-1-0s00006.o)
 .idata$7       0x0000000140009930        0x4 D:/code_and_stuff/tools/mingw/ucrt64/bin/../lib/gcc/x86_64-w64-mingw32/15.2.0/../../../../lib/libmsvcrt.a(libapi-ms-win-crt-stdio-l1-1-0s00152.o)
 .idata$7       0x0000000140009934        0x4 D:/code_and_stuff/tools/mingw/ucrt64/bin/../lib/gcc/x86_64-w64-mingw32/15.2.0/../../../../lib/libmsvcrt.a(libapi-ms-win-crt-stdio-l1-1-0s00156.o)
 .idata$7       0x0000000140009938        0x4 D:/code_and_stuff/tools/mingw/ucrt64/bin/../lib/gcc/x86_64-w64-mingw32/15.2.0/../../../../lib/libmsvcrt.a(libapi-ms-win-crt-stdio-l1-1-0s00159.o)
 .idata$7       0x000000014000993c        0x4 D:/code_and_stuff/tools/mingw/ucrt64/bin/../lib/gcc/x86_64-w64-mingw32/15.2.0/../../../../lib/libmsvcrt.a(libapi-ms-win-crt-stdio-l1-1-0s00162.o)
 .idata$7       0x0000000140009940        0x4 D:/code_and_stuff/tools/mingw/ucrt64/bin/../lib/gcc/x86_64-w64-mingw32/15.2.0/../../../../lib/libmsvcrt.a(libapi-ms-win-crt-stdio-l1-1-0s00179.o)
 .idata$7       0x0000000140009944        0x4 D:/code_and_stuff/tools/mingw/ucrt64/bin/../lib/gcc/x86_64-w64-mingw32/15.2.0/../../../../lib/libmsvcrt.a(libapi-ms-win-crt-stdio-l1-1-0s00188.o)
 .idata$7       0x0000000140009948        0x4 D:/code_and_stuff/tools/mingw/ucrt64/bin/../lib/gcc/x86_64-w64-mingw32/15.2.0/../../../../lib/libmsvcrt.a(libapi-ms-win-crt-stdio-l1-1-0s00189.o)
 .idata$7       0x000000014000994c       0x20 D:/code_and_stuff/tools/mingw/ucrt64/bin/../lib/gcc/x86_64-w64-mingw32/15.2.0/../../../../lib/libmsvcrt.a(libapi-ms-win-crt-stdio-l1-1-0t.o)
                0x000000014000994c                __lib64_libapi_ms_win_crt_stdio_l1_1_0_a_iname
 .idata$7       0x000000014000996c        0x4 D:/code_and_stuff/tools/mingw/ucrt64/bin/../lib/gcc/x86_64-w64-mingw32/15.2.0/../../../../lib/libmsvcrt.a(libapi-ms-win-crt-string-l1-1-0s00138.o)
 .idata$7       0x0000000140009970        0x4 D:/code_and_stuff/tools/mingw/ucrt64/bin/../lib/gcc/x86_64-w64-mingw32/15.2.0/../../../../lib/libmsvcrt.a(libapi-ms-win-crt-string-l1-1-0s00162.o)
 .idata$7       0x0000000140009974        0x4 D:/code_and_stuff/tools/mingw/ucrt64/bin/../lib/gcc/x86_64-w64-mingw32/15.2.0/../../../../lib/libmsvcrt.a(libapi-ms-win-crt-string-l1-1-0s00164.o)
 .idata$7       0x0000000140009978        0x4 D:/code_and_stuff/tools/mingw/ucrt64/bin/../lib/gcc/x86_64-w64-mingw32/15.2.0/../../../../lib/libmsvcrt.a(libapi-ms-win-crt-string-l1-1-0s00167.o)
 .idata$7       0x000000014000997c        0x4 D:/code_and_stuff/tools/mingw/ucrt64/bin/../lib/gcc/x86_64-w64-mingw32/15.2.0/../../../../lib/libmsvcrt.a(libapi-ms-win-crt-string-l1-1-0s00170.o)
 .idata$7       0x0000000140009980        0x4 D:/code_and_stuff/tools/mingw/ucrt64/bin/../lib/gcc/x86_64-w64-mingw32/15.2.0/../../../../lib/libmsvcrt.a(libapi-ms-win-crt-string-l1-1-0s00176.o)
 .idata$7       0x0000000140009984       0x24 D:/code_and_stuff/tools/mingw/ucrt64/bin/../lib/gcc/x86_64-w64-mingw32/15.2.0/../../../../lib/libmsvcrt.a(libapi-ms-win-crt-string-l1-1-0t.o)
                0x0000000140009984                __lib64_libapi_ms_win_crt_string_l1_1_0_a_iname

.didat
 SORT_BY_NAME(*)(.didat$5)

.tls            0x000000014000a000      0x200
                0x000000014000a000                ___tls_start__ = .
 *(.tls$AAA)
 *(.tls)
 .tls           0x000000014000a000        0x8 D:/code_and_stuff/tools/mingw/ucrt64/bin/../lib/gcc/x86_64-w64-mingw32/15.2.0/../../../../lib/libmingw32.a(lib64_libmingw32_a-tlssup.o)
                0x000000014000a000                _tls_start
 *(.tls$)
 *(SORT_BY_NAME(.tls$*))
 .tls$ZZZ       0x000000014000a008        0x8 D:/code_and_stuff/tools/mingw/ucrt64/bin/../lib/gcc/x86_64-w64-mingw32/15.2.0/../../../../lib/libmingw32.a(lib64_libmingw32_a-tlssup.o)
                0x000000014000a008                _tls_end
 *(.tls$ZZZ)
                0x000000014000a010                ___tls_end__ = .

.endjunk        0x000000014000b000        0x0
                [!provide]                        PROVIDE (end = .)
                [!provide]                        PROVIDE (_end = .)
                0x000000014000b000                __end__ = .

.rsrc           0x000000014000b000      0x600
 *(.rsrc)
 .rsrc          0x000000014000b000      0x4e8 D:/code_and_stuff/tools/mingw/ucrt64/bin/../lib/gcc/x86_64-w64-mingw32/15.2.0/../../../../lib/default-manifest.o
 *(.rsrc$*)

.reloc          0x000000014000c000      0x200
 *(.reloc)
 .reloc         0x000000014000c000       0x64 dll stuff

.stab
 *(.stab)

.stabstr
 *(.stabstr)

.debug_aranges  0x000000014000d000      0x600
 *(.debug_aranges)
 .debug_aranges
                0x000000014000d000       0x30 D:/code_and_stuff/tools/mingw/ucrt64/bin/../lib/gcc/x86_64-w64-mingw32/15.2.0/../../../../lib/crt2.o
 .debug_aranges
                0x000000014000d030       0x30 D:/code_and_stuff/tools/mingw/ucrt64/bin/../lib/gcc/x86_64-w64-mingw32/15.2.0/../../../../lib/libmingw32.a(lib64_libmingw32_a-gccmain.o)
 .debug_aranges
                0x000000014000d060       0x20 D:/code_and_stuff/tools/mingw/ucrt64/bin/../lib/gcc/x86_64-w64-mingw32/15.2.0/../../../../lib/libmingw32.a(lib64_libmingw32_a-natstart.o)
 .debug_aranges
                0x000000014000d080       0x20 D:/code_and_stuff/tools/mingw/ucrt64/bin/../lib/gcc/x86_64-w64-mingw32/15.2.0/../../../../lib/libmingw32.a(lib64_libmingw32_a-wildcard.o)
 .debug_aranges
                0x000000014000d0a0       0x30 D:/code_and_stuff/tools/mingw/ucrt64/bin/../lib/gcc/x86_64-w64-mingw32/15.2.0/../../../../lib/libmingw32.a(lib64_libmingw32_a-dllargv.o)
 .debug_aranges
                0x000000014000d0d0       0x20 D:/code_and_stuff/tools/mingw/ucrt64/bin/../lib/gcc/x86_64-w64-mingw32/15.2.0/../../../../lib/libmingw32.a(lib64_libmingw32_a-_newmode.o)
 .debug_aranges
                0x000000014000d0f0       0x30 D:/code_and_stuff/tools/mingw/ucrt64/bin/../lib/gcc/x86_64-w64-mingw32/15.2.0/../../../../lib/libmingw32.a(lib64_libmingw32_a-tlssup.o)
 .debug_aranges
                0x000000014000d120       0x20 D:/code_and_stuff/tools/mingw/ucrt64/bin/../lib/gcc/x86_64-w64-mingw32/15.2.0/../../../../lib/libmingw32.a(lib64_libmingw32_a-xncommod.o)
 .debug_aranges
                0x000000014000d140       0x20 D:/code_and_stuff/tools/mingw/ucrt64/bin/../lib/gcc/x86_64-w64-mingw32/15.2.0/../../../../lib/libmingw32.a(lib64_libmingw32_a-cinitexe.o)
 .debug_aranges
                0x000000014000d160       0x30 D:/code_and_stuff/tools/mingw/ucrt64/bin/../lib/gcc/x86_64-w64-mingw32/15.2.0/../../../../lib/libmingw32.a(lib64_libmingw32_a-merr.o)
 .debug_aranges
                0x000000014000d190       0x20 D:/code_and_stuff/tools/mingw/ucrt64/bin/../lib/gcc/x86_64-w64-mingw32/15.2.0/../../../../lib/libmingw32.a(lib64_libmingw32_a-xthdloc.o)
 .debug_aranges
                0x000000014000d1b0       0x20 D:/code_and_stuff/tools/mingw/ucrt64/bin/../lib/gcc/x86_64-w64-mingw32/15.2.0/../../../../lib/libmingw32.a(lib64_libmingw32_a-mingw_helpers.o)
 .debug_aranges
                0x000000014000d1d0       0x30 D:/code_and_stuff/tools/mingw/ucrt64/bin/../lib/gcc/x86_64-w64-mingw32/15.2.0/../../../../lib/libmingw32.a(lib64_libmingw32_a-pseudo-reloc.o)
 .debug_aranges
                0x000000014000d200       0x30 D:/code_and_stuff/tools/mingw/ucrt64/bin/../lib/gcc/x86_64-w64-mingw32/15.2.0/../../../../lib/libmingw32.a(lib64_libmingw32_a-usermatherr.o)
 .debug_aranges
                0x000000014000d230       0x20 D:/code_and_stuff/tools/mingw/ucrt64/bin/../lib/gcc/x86_64-w64-mingw32/15.2.0/../../../../lib/libmingw32.a(lib64_libmingw32_a-xtxtmode.o)
 .debug_aranges
                0x000000014000d250       0x30 D:/code_and_stuff/tools/mingw/ucrt64/bin/../lib/gcc/x86_64-w64-mingw32/15.2.0/../../../../lib/libmingw32.a(lib64_libmingw32_a-crt_handler.o)
 .debug_aranges
                0x000000014000d280       0x30 D:/code_and_stuff/tools/mingw/ucrt64/bin/../lib/gcc/x86_64-w64-mingw32/15.2.0/../../../../lib/libmingw32.a(lib64_libmingw32_a-tlsthrd.o)
 .debug_aranges
                0x000000014000d2b0       0x20 D:/code_and_stuff/tools/mingw/ucrt64/bin/../lib/gcc/x86_64-w64-mingw32/15.2.0/../../../../lib/libmingw32.a(lib64_libmingw32_a-tlsmcrt.o)
 .debug_aranges
                0x000000014000d2d0       0x30 D:/code_and_stuff/tools/mingw/ucrt64/bin/../lib/gcc/x86_64-w64-mingw32/15.2.0/../../../../lib/libmingw32.a(lib64_libmingw32_a-CRT_fp10.o)
 .debug_aranges
                0x000000014000d300       0x20 D:/code_and_stuff/tools/mingw/ucrt64/bin/../lib/gcc/x86_64-w64-mingw32/15.2.0/../../../../lib/libmingw32.a(lib64_libmingw32_a-pseudo-reloc-list.o)
 .debug_aranges
                0x000000014000d320       0x30 D:/code_and_stuff/tools/mingw/ucrt64/bin/../lib/gcc/x86_64-w64-mingw32/15.2.0/../../../../lib/libmingw32.a(lib64_libmingw32_a-pesect.o)
 .debug_aranges
                0x000000014000d350       0x20 D:/code_and_stuff/tools/mingw/ucrt64/bin/../lib/gcc/x86_64-w64-mingw32/15.2.0/../../../../lib/libmingwex.a(lib64_libmingwex_a-mingw_matherr.o)
 .debug_aranges
                0x000000014000d370       0x30 D:/code_and_stuff/tools/mingw/ucrt64/bin/../lib/gcc/x86_64-w64-mingw32/15.2.0/../../../../lib/libmsvcrt.a(lib64_libucrt_extra_a-ucrt_vfprintf.o)
 .debug_aranges
                0x000000014000d3a0       0x30 D:/code_and_stuff/tools/mingw/ucrt64/bin/../lib/gcc/x86_64-w64-mingw32/15.2.0/../../../../lib/libmsvcrt.a(lib64_libucrt_extra_a-ucrt_scanf.o)
 .debug_aranges
                0x000000014000d3d0       0x30 D:/code_and_stuff/tools/mingw/ucrt64/bin/../lib/gcc/x86_64-w64-mingw32/15.2.0/../../../../lib/libmsvcrt.a(lib64_libucrt_extra_a-ucrt_printf.o)
 .debug_aranges
                0x000000014000d400       0x30 D:/code_and_stuff/tools/mingw/ucrt64/bin/../lib/gcc/x86_64-w64-mingw32/15.2.0/../../../../lib/libmsvcrt.a(lib64_libucrt_extra_a-ucrt_fprintf.o)
 .debug_aranges
                0x000000014000d430       0x30 D:/code_and_stuff/tools/mingw/ucrt64/bin/../lib/gcc/x86_64-w64-mingw32/15.2.0/../../../../lib/libmsvcrt.a(lib64_libucrt_extra_a-ucrt___local_stdio_scanf_options.o)
 .debug_aranges
                0x000000014000d460       0x30 D:/code_and_stuff/tools/mingw/ucrt64/bin/../lib/gcc/x86_64-w64-mingw32/15.2.0/../../../../lib/libmsvcrt.a(lib64_libucrt_extra_a-ucrt___local_stdio_printf_options.o)
 .debug_aranges
                0x000000014000d490       0x30 D:/code_and_stuff/tools/mingw/ucrt64/bin/../lib/gcc/x86_64-w64-mingw32/15.2.0/../../../../lib/libmsvcrt.a(lib64_libucrt_extra_a-__p___initenv.o)
 .debug_aranges
                0x000000014000d4c0       0x30 D:/code_and_stuff/tools/mingw/ucrt64/bin/../lib/gcc/x86_64-w64-mingw32/15.2.0/../../../../lib/libmsvcrt.a(lib64_libucrt_extra_a-ucrt_amsg_exit.o)
 .debug_aranges
                0x000000014000d4f0       0x30 D:/code_and_stuff/tools/mingw/ucrt64/bin/../lib/gcc/x86_64-w64-mingw32/15.2.0/../../../../lib/libmsvcrt.a(lib64_libucrt_extra_a-ucrt__getmainargs.o)
 .debug_aranges
                0x000000014000d520       0x20 D:/code_and_stuff/tools/mingw/ucrt64/bin/../lib/gcc/x86_64-w64-mingw32/15.2.0/../../../../lib/libmsvcrt.a(lib64_libucrt_extra_a-__initenv.o)

.zdebug_aranges
 *(.zdebug_aranges)

.debug_pubnames
 *(.debug_pubnames)

.zdebug_pubnames
 *(.zdebug_pubnames)

.debug_info     0x000000014000e000     0xb400
 *(.debug_info .gnu.linkonce.wi.*)
 .debug_info    0x000000014000e000     0x2689 D:/code_and_stuff/tools/mingw/ucrt64/bin/../lib/gcc/x86_64-w64-mingw32/15.2.0/../../../../lib/crt2.o
 .debug_info    0x0000000140010689      0x681 D:/code_and_stuff/tools/mingw/ucrt64/bin/../lib/gcc/x86_64-w64-mingw32/15.2.0/../../../../lib/libmingw32.a(lib64_libmingw32_a-gccmain.o)
 .debug_info    0x0000000140010d0a      0x622 D:/code_and_stuff/tools/mingw/ucrt64/bin/../lib/gcc/x86_64-w64-mingw32/15.2.0/../../../../lib/libmingw32.a(lib64_libmingw32_a-natstart.o)
 .debug_info    0x000000014001132c       0x9a D:/code_and_stuff/tools/mingw/ucrt64/bin/../lib/gcc/x86_64-w64-mingw32/15.2.0/../../../../lib/libmingw32.a(lib64_libmingw32_a-wildcard.o)
 .debug_info    0x00000001400113c6      0x1a1 D:/code_and_stuff/tools/mingw/ucrt64/bin/../lib/gcc/x86_64-w64-mingw32/15.2.0/../../../../lib/libmingw32.a(lib64_libmingw32_a-dllargv.o)
 .debug_info    0x0000000140011567       0x97 D:/code_and_stuff/tools/mingw/ucrt64/bin/../lib/gcc/x86_64-w64-mingw32/15.2.0/../../../../lib/libmingw32.a(lib64_libmingw32_a-_newmode.o)
 .debug_info    0x00000001400115fe      0x7d2 D:/code_and_stuff/tools/mingw/ucrt64/bin/../lib/gcc/x86_64-w64-mingw32/15.2.0/../../../../lib/libmingw32.a(lib64_libmingw32_a-tlssup.o)
 .debug_info    0x0000000140011dd0       0x97 D:/code_and_stuff/tools/mingw/ucrt64/bin/../lib/gcc/x86_64-w64-mingw32/15.2.0/../../../../lib/libmingw32.a(lib64_libmingw32_a-xncommod.o)
 .debug_info    0x0000000140011e67      0x1ab D:/code_and_stuff/tools/mingw/ucrt64/bin/../lib/gcc/x86_64-w64-mingw32/15.2.0/../../../../lib/libmingw32.a(lib64_libmingw32_a-cinitexe.o)
 .debug_info    0x0000000140012012      0x346 D:/code_and_stuff/tools/mingw/ucrt64/bin/../lib/gcc/x86_64-w64-mingw32/15.2.0/../../../../lib/libmingw32.a(lib64_libmingw32_a-merr.o)
 .debug_info    0x0000000140012358       0xa3 D:/code_and_stuff/tools/mingw/ucrt64/bin/../lib/gcc/x86_64-w64-mingw32/15.2.0/../../../../lib/libmingw32.a(lib64_libmingw32_a-xthdloc.o)
 .debug_info    0x00000001400123fb       0x9f D:/code_and_stuff/tools/mingw/ucrt64/bin/../lib/gcc/x86_64-w64-mingw32/15.2.0/../../../../lib/libmingw32.a(lib64_libmingw32_a-mingw_helpers.o)
 .debug_info    0x000000014001249a     0x17cf D:/code_and_stuff/tools/mingw/ucrt64/bin/../lib/gcc/x86_64-w64-mingw32/15.2.0/../../../../lib/libmingw32.a(lib64_libmingw32_a-pseudo-reloc.o)
 .debug_info    0x0000000140013c69      0x302 D:/code_and_stuff/tools/mingw/ucrt64/bin/../lib/gcc/x86_64-w64-mingw32/15.2.0/../../../../lib/libmingw32.a(lib64_libmingw32_a-usermatherr.o)
 .debug_info    0x0000000140013f6b       0x95 D:/code_and_stuff/tools/mingw/ucrt64/bin/../lib/gcc/x86_64-w64-mingw32/15.2.0/../../../../lib/libmingw32.a(lib64_libmingw32_a-xtxtmode.o)
 .debug_info    0x0000000140014000     0x1001 D:/code_and_stuff/tools/mingw/ucrt64/bin/../lib/gcc/x86_64-w64-mingw32/15.2.0/../../../../lib/libmingw32.a(lib64_libmingw32_a-crt_handler.o)
 .debug_info    0x0000000140015001      0xb10 D:/code_and_stuff/tools/mingw/ucrt64/bin/../lib/gcc/x86_64-w64-mingw32/15.2.0/../../../../lib/libmingw32.a(lib64_libmingw32_a-tlsthrd.o)
 .debug_info    0x0000000140015b11       0x96 D:/code_and_stuff/tools/mingw/ucrt64/bin/../lib/gcc/x86_64-w64-mingw32/15.2.0/../../../../lib/libmingw32.a(lib64_libmingw32_a-tlsmcrt.o)
 .debug_info    0x0000000140015ba7       0xa4 D:/code_and_stuff/tools/mingw/ucrt64/bin/../lib/gcc/x86_64-w64-mingw32/15.2.0/../../../../lib/libmingw32.a(lib64_libmingw32_a-CRT_fp10.o)
 .debug_info    0x0000000140015c4b       0xdd D:/code_and_stuff/tools/mingw/ucrt64/bin/../lib/gcc/x86_64-w64-mingw32/15.2.0/../../../../lib/libmingw32.a(lib64_libmingw32_a-pseudo-reloc-list.o)
 .debug_info    0x0000000140015d28     0x1470 D:/code_and_stuff/tools/mingw/ucrt64/bin/../lib/gcc/x86_64-w64-mingw32/15.2.0/../../../../lib/libmingw32.a(lib64_libmingw32_a-pesect.o)
 .debug_info    0x0000000140017198       0xab D:/code_and_stuff/tools/mingw/ucrt64/bin/../lib/gcc/x86_64-w64-mingw32/15.2.0/../../../../lib/libmingwex.a(lib64_libmingwex_a-mingw_matherr.o)
 .debug_info    0x0000000140017243      0x39b D:/code_and_stuff/tools/mingw/ucrt64/bin/../lib/gcc/x86_64-w64-mingw32/15.2.0/../../../../lib/libmsvcrt.a(lib64_libucrt_extra_a-ucrt_vfprintf.o)
 .debug_info    0x00000001400175de      0x3c8 D:/code_and_stuff/tools/mingw/ucrt64/bin/../lib/gcc/x86_64-w64-mingw32/15.2.0/../../../../lib/libmsvcrt.a(lib64_libucrt_extra_a-ucrt_scanf.o)
 .debug_info    0x00000001400179a6      0x3c7 D:/code_and_stuff/tools/mingw/ucrt64/bin/../lib/gcc/x86_64-w64-mingw32/15.2.0/../../../../lib/libmsvcrt.a(lib64_libucrt_extra_a-ucrt_printf.o)
 .debug_info    0x0000000140017d6d      0x3a6 D:/code_and_stuff/tools/mingw/ucrt64/bin/../lib/gcc/x86_64-w64-mingw32/15.2.0/../../../../lib/libmsvcrt.a(lib64_libucrt_extra_a-ucrt_fprintf.o)
 .debug_info    0x0000000140018113      0x147 D:/code_and_stuff/tools/mingw/ucrt64/bin/../lib/gcc/x86_64-w64-mingw32/15.2.0/../../../../lib/libmsvcrt.a(lib64_libucrt_extra_a-ucrt___local_stdio_scanf_options.o)
 .debug_info    0x000000014001825a      0x148 D:/code_and_stuff/tools/mingw/ucrt64/bin/../lib/gcc/x86_64-w64-mingw32/15.2.0/../../../../lib/libmsvcrt.a(lib64_libucrt_extra_a-ucrt___local_stdio_printf_options.o)
 .debug_info    0x00000001400183a2      0x10c D:/code_and_stuff/tools/mingw/ucrt64/bin/../lib/gcc/x86_64-w64-mingw32/15.2.0/../../../../lib/libmsvcrt.a(lib64_libucrt_extra_a-__p___initenv.o)
 .debug_info    0x00000001400184ae      0x672 D:/code_and_stuff/tools/mingw/ucrt64/bin/../lib/gcc/x86_64-w64-mingw32/15.2.0/../../../../lib/libmsvcrt.a(lib64_libucrt_extra_a-ucrt_amsg_exit.o)
 .debug_info    0x0000000140018b20      0x7cb D:/code_and_stuff/tools/mingw/ucrt64/bin/../lib/gcc/x86_64-w64-mingw32/15.2.0/../../../../lib/libmsvcrt.a(lib64_libucrt_extra_a-ucrt__getmainargs.o)
 .debug_info    0x00000001400192eb       0xcf D:/code_and_stuff/tools/mingw/ucrt64/bin/../lib/gcc/x86_64-w64-mingw32/15.2.0/../../../../lib/libmsvcrt.a(lib64_libucrt_extra_a-__initenv.o)

.zdebug_info
 *(.zdebug_info .zdebug.gnu.linkonce.wi.*)

.debug_abbrev   0x000000014001a000     0x2400
 *(.debug_abbrev)
 .debug_abbrev  0x000000014001a000      0x595 D:/code_and_stuff/tools/mingw/ucrt64/bin/../lib/gcc/x86_64-w64-mingw32/15.2.0/../../../../lib/crt2.o
 .debug_abbrev  0x000000014001a595      0x13f D:/code_and_stuff/tools/mingw/ucrt64/bin/../lib/gcc/x86_64-w64-mingw32/15.2.0/../../../../lib/libmingw32.a(lib64_libmingw32_a-gccmain.o)
 .debug_abbrev  0x000000014001a6d4       0xaf D:/code_and_stuff/tools/mingw/ucrt64/bin/../lib/gcc/x86_64-w64-mingw32/15.2.0/../../../../lib/libmingw32.a(lib64_libmingw32_a-natstart.o)
 .debug_abbrev  0x000000014001a783       0x2e D:/code_and_stuff/tools/mingw/ucrt64/bin/../lib/gcc/x86_64-w64-mingw32/15.2.0/../../../../lib/libmingw32.a(lib64_libmingw32_a-wildcard.o)
 .debug_abbrev  0x000000014001a7b1       0x3a D:/code_and_stuff/tools/mingw/ucrt64/bin/../lib/gcc/x86_64-w64-mingw32/15.2.0/../../../../lib/libmingw32.a(lib64_libmingw32_a-dllargv.o)
 .debug_abbrev  0x000000014001a7eb       0x2e D:/code_and_stuff/tools/mingw/ucrt64/bin/../lib/gcc/x86_64-w64-mingw32/15.2.0/../../../../lib/libmingw32.a(lib64_libmingw32_a-_newmode.o)
 .debug_abbrev  0x000000014001a819      0x1e8 D:/code_and_stuff/tools/mingw/ucrt64/bin/../lib/gcc/x86_64-w64-mingw32/15.2.0/../../../../lib/libmingw32.a(lib64_libmingw32_a-tlssup.o)
 .debug_abbrev  0x000000014001aa01       0x2e D:/code_and_stuff/tools/mingw/ucrt64/bin/../lib/gcc/x86_64-w64-mingw32/15.2.0/../../../../lib/libmingw32.a(lib64_libmingw32_a-xncommod.o)
 .debug_abbrev  0x000000014001aa2f       0x6d D:/code_and_stuff/tools/mingw/ucrt64/bin/../lib/gcc/x86_64-w64-mingw32/15.2.0/../../../../lib/libmingw32.a(lib64_libmingw32_a-cinitexe.o)
 .debug_abbrev  0x000000014001aa9c      0x105 D:/code_and_stuff/tools/mingw/ucrt64/bin/../lib/gcc/x86_64-w64-mingw32/15.2.0/../../../../lib/libmingw32.a(lib64_libmingw32_a-merr.o)
 .debug_abbrev  0x000000014001aba1       0x2e D:/code_and_stuff/tools/mingw/ucrt64/bin/../lib/gcc/x86_64-w64-mingw32/15.2.0/../../../../lib/libmingw32.a(lib64_libmingw32_a-xthdloc.o)
 .debug_abbrev  0x000000014001abcf       0x2e D:/code_and_stuff/tools/mingw/ucrt64/bin/../lib/gcc/x86_64-w64-mingw32/15.2.0/../../../../lib/libmingw32.a(lib64_libmingw32_a-mingw_helpers.o)
 .debug_abbrev  0x000000014001abfd      0x3c4 D:/code_and_stuff/tools/mingw/ucrt64/bin/../lib/gcc/x86_64-w64-mingw32/15.2.0/../../../../lib/libmingw32.a(lib64_libmingw32_a-pseudo-reloc.o)
 .debug_abbrev  0x000000014001afc1      0x112 D:/code_and_stuff/tools/mingw/ucrt64/bin/../lib/gcc/x86_64-w64-mingw32/15.2.0/../../../../lib/libmingw32.a(lib64_libmingw32_a-usermatherr.o)
 .debug_abbrev  0x000000014001b0d3       0x2e D:/code_and_stuff/tools/mingw/ucrt64/bin/../lib/gcc/x86_64-w64-mingw32/15.2.0/../../../../lib/libmingw32.a(lib64_libmingw32_a-xtxtmode.o)
 .debug_abbrev  0x000000014001b101      0x284 D:/code_and_stuff/tools/mingw/ucrt64/bin/../lib/gcc/x86_64-w64-mingw32/15.2.0/../../../../lib/libmingw32.a(lib64_libmingw32_a-crt_handler.o)
 .debug_abbrev  0x000000014001b385      0x25a D:/code_and_stuff/tools/mingw/ucrt64/bin/../lib/gcc/x86_64-w64-mingw32/15.2.0/../../../../lib/libmingw32.a(lib64_libmingw32_a-tlsthrd.o)
 .debug_abbrev  0x000000014001b5df       0x2e D:/code_and_stuff/tools/mingw/ucrt64/bin/../lib/gcc/x86_64-w64-mingw32/15.2.0/../../../../lib/libmingw32.a(lib64_libmingw32_a-tlsmcrt.o)
 .debug_abbrev  0x000000014001b60d       0x2d D:/code_and_stuff/tools/mingw/ucrt64/bin/../lib/gcc/x86_64-w64-mingw32/15.2.0/../../../../lib/libmingw32.a(lib64_libmingw32_a-CRT_fp10.o)
 .debug_abbrev  0x000000014001b63a       0x30 D:/code_and_stuff/tools/mingw/ucrt64/bin/../lib/gcc/x86_64-w64-mingw32/15.2.0/../../../../lib/libmingw32.a(lib64_libmingw32_a-pseudo-reloc-list.o)
 .debug_abbrev  0x000000014001b66a      0x293 D:/code_and_stuff/tools/mingw/ucrt64/bin/../lib/gcc/x86_64-w64-mingw32/15.2.0/../../../../lib/libmingw32.a(lib64_libmingw32_a-pesect.o)
 .debug_abbrev  0x000000014001b8fd       0x2e D:/code_and_stuff/tools/mingw/ucrt64/bin/../lib/gcc/x86_64-w64-mingw32/15.2.0/../../../../lib/libmingwex.a(lib64_libmingwex_a-mingw_matherr.o)
 .debug_abbrev  0x000000014001b92b      0x138 D:/code_and_stuff/tools/mingw/ucrt64/bin/../lib/gcc/x86_64-w64-mingw32/15.2.0/../../../../lib/libmsvcrt.a(lib64_libucrt_extra_a-ucrt_vfprintf.o)
 .debug_abbrev  0x000000014001ba63      0x182 D:/code_and_stuff/tools/mingw/ucrt64/bin/../lib/gcc/x86_64-w64-mingw32/15.2.0/../../../../lib/libmsvcrt.a(lib64_libucrt_extra_a-ucrt_scanf.o)
 .debug_abbrev  0x000000014001bbe5      0x182 D:/code_and_stuff/tools/mingw/ucrt64/bin/../lib/gcc/x86_64-w64-mingw32/15.2.0/../../../../lib/libmsvcrt.a(lib64_libucrt_extra_a-ucrt_printf.o)
 .debug_abbrev  0x000000014001bd67      0x162 D:/code_and_stuff/tools/mingw/ucrt64/bin/../lib/gcc/x86_64-w64-mingw32/15.2.0/../../../../lib/libmsvcrt.a(lib64_libucrt_extra_a-ucrt_fprintf.o)
 .debug_abbrev  0x000000014001bec9       0x54 D:/code_and_stuff/tools/mingw/ucrt64/bin/../lib/gcc/x86_64-w64-mingw32/15.2.0/../../../../lib/libmsvcrt.a(lib64_libucrt_extra_a-ucrt___local_stdio_scanf_options.o)
 .debug_abbrev  0x000000014001bf1d       0x54 D:/code_and_stuff/tools/mingw/ucrt64/bin/../lib/gcc/x86_64-w64-mingw32/15.2.0/../../../../lib/libmsvcrt.a(lib64_libucrt_extra_a-ucrt___local_stdio_printf_options.o)
 .debug_abbrev  0x000000014001bf71       0x73 D:/code_and_stuff/tools/mingw/ucrt64/bin/../lib/gcc/x86_64-w64-mingw32/15.2.0/../../../../lib/libmsvcrt.a(lib64_libucrt_extra_a-__p___initenv.o)
 .debug_abbrev  0x000000014001bfe4      0x168 D:/code_and_stuff/tools/mingw/ucrt64/bin/../lib/gcc/x86_64-w64-mingw32/15.2.0/../../../../lib/libmsvcrt.a(lib64_libucrt_extra_a-ucrt_amsg_exit.o)
 .debug_abbrev  0x000000014001c14c      0x16a D:/code_and_stuff/tools/mingw/ucrt64/bin/../lib/gcc/x86_64-w64-mingw32/15.2.0/../../../../lib/libmsvcrt.a(lib64_libucrt_extra_a-ucrt__getmainargs.o)
 .debug_abbrev  0x000000014001c2b6       0x49 D:/code_and_stuff/tools/mingw/ucrt64/bin/../lib/gcc/x86_64-w64-mingw32/15.2.0/../../../../lib/libmsvcrt.a(lib64_libucrt_extra_a-__initenv.o)

.zdebug_abbrev
 *(.zdebug_abbrev)

.debug_line     0x000000014001d000     0x2000
 *(.debug_line)
 .debug_line    0x000000014001d000      0x40c D:/code_and_stuff/tools/mingw/ucrt64/bin/../lib/gcc/x86_64-w64-mingw32/15.2.0/../../../../lib/crt2.o
 .debug_line    0x000000014001d40c      0x11c D:/code_and_stuff/tools/mingw/ucrt64/bin/../lib/gcc/x86_64-w64-mingw32/15.2.0/../../../../lib/libmingw32.a(lib64_libmingw32_a-gccmain.o)
 .debug_line    0x000000014001d528       0x56 D:/code_and_stuff/tools/mingw/ucrt64/bin/../lib/gcc/x86_64-w64-mingw32/15.2.0/../../../../lib/libmingw32.a(lib64_libmingw32_a-natstart.o)
 .debug_line    0x000000014001d57e       0x3a D:/code_and_stuff/tools/mingw/ucrt64/bin/../lib/gcc/x86_64-w64-mingw32/15.2.0/../../../../lib/libmingw32.a(lib64_libmingw32_a-wildcard.o)
 .debug_line    0x000000014001d5b8       0x56 D:/code_and_stuff/tools/mingw/ucrt64/bin/../lib/gcc/x86_64-w64-mingw32/15.2.0/../../../../lib/libmingw32.a(lib64_libmingw32_a-dllargv.o)
 .debug_line    0x000000014001d60e       0x3a D:/code_and_stuff/tools/mingw/ucrt64/bin/../lib/gcc/x86_64-w64-mingw32/15.2.0/../../../../lib/libmingw32.a(lib64_libmingw32_a-_newmode.o)
 .debug_line    0x000000014001d648      0x132 D:/code_and_stuff/tools/mingw/ucrt64/bin/../lib/gcc/x86_64-w64-mingw32/15.2.0/../../../../lib/libmingw32.a(lib64_libmingw32_a-tlssup.o)
 .debug_line    0x000000014001d77a       0x3a D:/code_and_stuff/tools/mingw/ucrt64/bin/../lib/gcc/x86_64-w64-mingw32/15.2.0/../../../../lib/libmingw32.a(lib64_libmingw32_a-xncommod.o)
 .debug_line    0x000000014001d7b4       0x43 D:/code_and_stuff/tools/mingw/ucrt64/bin/../lib/gcc/x86_64-w64-mingw32/15.2.0/../../../../lib/libmingw32.a(lib64_libmingw32_a-cinitexe.o)
 .debug_line    0x000000014001d7f7       0xbe D:/code_and_stuff/tools/mingw/ucrt64/bin/../lib/gcc/x86_64-w64-mingw32/15.2.0/../../../../lib/libmingw32.a(lib64_libmingw32_a-merr.o)
 .debug_line    0x000000014001d8b5       0x3a D:/code_and_stuff/tools/mingw/ucrt64/bin/../lib/gcc/x86_64-w64-mingw32/15.2.0/../../../../lib/libmingw32.a(lib64_libmingw32_a-xthdloc.o)
 .debug_line    0x000000014001d8ef       0x3a D:/code_and_stuff/tools/mingw/ucrt64/bin/../lib/gcc/x86_64-w64-mingw32/15.2.0/../../../../lib/libmingw32.a(lib64_libmingw32_a-mingw_helpers.o)
 .debug_line    0x000000014001d929      0x59b D:/code_and_stuff/tools/mingw/ucrt64/bin/../lib/gcc/x86_64-w64-mingw32/15.2.0/../../../../lib/libmingw32.a(lib64_libmingw32_a-pseudo-reloc.o)
 .debug_line    0x000000014001dec4       0xaf D:/code_and_stuff/tools/mingw/ucrt64/bin/../lib/gcc/x86_64-w64-mingw32/15.2.0/../../../../lib/libmingw32.a(lib64_libmingw32_a-usermatherr.o)
 .debug_line    0x000000014001df73       0x3a D:/code_and_stuff/tools/mingw/ucrt64/bin/../lib/gcc/x86_64-w64-mingw32/15.2.0/../../../../lib/libmingw32.a(lib64_libmingw32_a-xtxtmode.o)
 .debug_line    0x000000014001dfad      0x192 D:/code_and_stuff/tools/mingw/ucrt64/bin/../lib/gcc/x86_64-w64-mingw32/15.2.0/../../../../lib/libmingw32.a(lib64_libmingw32_a-crt_handler.o)
 .debug_line    0x000000014001e13f      0x292 D:/code_and_stuff/tools/mingw/ucrt64/bin/../lib/gcc/x86_64-w64-mingw32/15.2.0/../../../../lib/libmingw32.a(lib64_libmingw32_a-tlsthrd.o)
 .debug_line    0x000000014001e3d1       0x3a D:/code_and_stuff/tools/mingw/ucrt64/bin/../lib/gcc/x86_64-w64-mingw32/15.2.0/../../../../lib/libmingw32.a(lib64_libmingw32_a-tlsmcrt.o)
 .debug_line    0x000000014001e40b       0x56 D:/code_and_stuff/tools/mingw/ucrt64/bin/../lib/gcc/x86_64-w64-mingw32/15.2.0/../../../../lib/libmingw32.a(lib64_libmingw32_a-CRT_fp10.o)
 .debug_line    0x000000014001e461       0x3a D:/code_and_stuff/tools/mingw/ucrt64/bin/../lib/gcc/x86_64-w64-mingw32/15.2.0/../../../../lib/libmingw32.a(lib64_libmingw32_a-pseudo-reloc-list.o)
 .debug_line    0x000000014001e49b      0x548 D:/code_and_stuff/tools/mingw/ucrt64/bin/../lib/gcc/x86_64-w64-mingw32/15.2.0/../../../../lib/libmingw32.a(lib64_libmingw32_a-pesect.o)
 .debug_line    0x000000014001e9e3       0x3a D:/code_and_stuff/tools/mingw/ucrt64/bin/../lib/gcc/x86_64-w64-mingw32/15.2.0/../../../../lib/libmingwex.a(lib64_libmingwex_a-mingw_matherr.o)
 .debug_line    0x000000014001ea1d       0x82 D:/code_and_stuff/tools/mingw/ucrt64/bin/../lib/gcc/x86_64-w64-mingw32/15.2.0/../../../../lib/libmsvcrt.a(lib64_libucrt_extra_a-ucrt_vfprintf.o)
 .debug_line    0x000000014001ea9f       0x9e D:/code_and_stuff/tools/mingw/ucrt64/bin/../lib/gcc/x86_64-w64-mingw32/15.2.0/../../../../lib/libmsvcrt.a(lib64_libucrt_extra_a-ucrt_scanf.o)
 .debug_line    0x000000014001eb3d       0x9e D:/code_and_stuff/tools/mingw/ucrt64/bin/../lib/gcc/x86_64-w64-mingw32/15.2.0/../../../../lib/libmsvcrt.a(lib64_libucrt_extra_a-ucrt_printf.o)
 .debug_line    0x000000014001ebdb       0x8f D:/code_and_stuff/tools/mingw/ucrt64/bin/../lib/gcc/x86_64-w64-mingw32/15.2.0/../../../../lib/libmsvcrt.a(lib64_libucrt_extra_a-ucrt_fprintf.o)
 .debug_line    0x000000014001ec6a       0x5f D:/code_and_stuff/tools/mingw/ucrt64/bin/../lib/gcc/x86_64-w64-mingw32/15.2.0/../../../../lib/libmsvcrt.a(lib64_libucrt_extra_a-ucrt___local_stdio_scanf_options.o)
 .debug_line    0x000000014001ecc9       0x5f D:/code_and_stuff/tools/mingw/ucrt64/bin/../lib/gcc/x86_64-w64-mingw32/15.2.0/../../../../lib/libmsvcrt.a(lib64_libucrt_extra_a-ucrt___local_stdio_printf_options.o)
 .debug_line    0x000000014001ed28       0x5e D:/code_and_stuff/tools/mingw/ucrt64/bin/../lib/gcc/x86_64-w64-mingw32/15.2.0/../../../../lib/libmsvcrt.a(lib64_libucrt_extra_a-__p___initenv.o)
 .debug_line    0x000000014001ed86       0x84 D:/code_and_stuff/tools/mingw/ucrt64/bin/../lib/gcc/x86_64-w64-mingw32/15.2.0/../../../../lib/libmsvcrt.a(lib64_libucrt_extra_a-ucrt_amsg_exit.o)
 .debug_line    0x000000014001ee0a       0xe6 D:/code_and_stuff/tools/mingw/ucrt64/bin/../lib/gcc/x86_64-w64-mingw32/15.2.0/../../../../lib/libmsvcrt.a(lib64_libucrt_extra_a-ucrt__getmainargs.o)
 .debug_line    0x000000014001eef0       0x3a D:/code_and_stuff/tools/mingw/ucrt64/bin/../lib/gcc/x86_64-w64-mingw32/15.2.0/../../../../lib/libmsvcrt.a(lib64_libucrt_extra_a-__initenv.o)

.zdebug_line
 *(.zdebug_line)

.debug_frame    0x000000014001f000      0xa00
 *(.debug_frame*)
 .debug_frame   0x000000014001f000       0xf8 D:/code_and_stuff/tools/mingw/ucrt64/bin/../lib/gcc/x86_64-w64-mingw32/15.2.0/../../../../lib/crt2.o
 .debug_frame   0x000000014001f0f8       0x88 D:/code_and_stuff/tools/mingw/ucrt64/bin/../lib/gcc/x86_64-w64-mingw32/15.2.0/../../../../lib/libmingw32.a(lib64_libmingw32_a-gccmain.o)
 .debug_frame   0x000000014001f180       0x30 D:/code_and_stuff/tools/mingw/ucrt64/bin/../lib/gcc/x86_64-w64-mingw32/15.2.0/../../../../lib/libmingw32.a(lib64_libmingw32_a-dllargv.o)
 .debug_frame   0x000000014001f1b0       0x98 D:/code_and_stuff/tools/mingw/ucrt64/bin/../lib/gcc/x86_64-w64-mingw32/15.2.0/../../../../lib/libmingw32.a(lib64_libmingw32_a-tlssup.o)
 .debug_frame   0x000000014001f248       0x58 D:/code_and_stuff/tools/mingw/ucrt64/bin/../lib/gcc/x86_64-w64-mingw32/15.2.0/../../../../lib/libmingw32.a(lib64_libmingw32_a-merr.o)
 .debug_frame   0x000000014001f2a0       0xe0 D:/code_and_stuff/tools/mingw/ucrt64/bin/../lib/gcc/x86_64-w64-mingw32/15.2.0/../../../../lib/libmingw32.a(lib64_libmingw32_a-pseudo-reloc.o)
 .debug_frame   0x000000014001f380       0x50 D:/code_and_stuff/tools/mingw/ucrt64/bin/../lib/gcc/x86_64-w64-mingw32/15.2.0/../../../../lib/libmingw32.a(lib64_libmingw32_a-usermatherr.o)
 .debug_frame   0x000000014001f3d0       0x58 D:/code_and_stuff/tools/mingw/ucrt64/bin/../lib/gcc/x86_64-w64-mingw32/15.2.0/../../../../lib/libmingw32.a(lib64_libmingw32_a-crt_handler.o)
 .debug_frame   0x000000014001f428       0xd8 D:/code_and_stuff/tools/mingw/ucrt64/bin/../lib/gcc/x86_64-w64-mingw32/15.2.0/../../../../lib/libmingw32.a(lib64_libmingw32_a-tlsthrd.o)
 .debug_frame   0x000000014001f500       0x30 D:/code_and_stuff/tools/mingw/ucrt64/bin/../lib/gcc/x86_64-w64-mingw32/15.2.0/../../../../lib/libmingw32.a(lib64_libmingw32_a-CRT_fp10.o)
 .debug_frame   0x000000014001f530      0x120 D:/code_and_stuff/tools/mingw/ucrt64/bin/../lib/gcc/x86_64-w64-mingw32/15.2.0/../../../../lib/libmingw32.a(lib64_libmingw32_a-pesect.o)
 .debug_frame   0x000000014001f650       0x58 D:/code_and_stuff/tools/mingw/ucrt64/bin/../lib/gcc/x86_64-w64-mingw32/15.2.0/../../../../lib/libmsvcrt.a(lib64_libucrt_extra_a-ucrt_vfprintf.o)
 .debug_frame   0x000000014001f6a8       0x58 D:/code_and_stuff/tools/mingw/ucrt64/bin/../lib/gcc/x86_64-w64-mingw32/15.2.0/../../../../lib/libmsvcrt.a(lib64_libucrt_extra_a-ucrt_scanf.o)
 .debug_frame   0x000000014001f700       0x58 D:/code_and_stuff/tools/mingw/ucrt64/bin/../lib/gcc/x86_64-w64-mingw32/15.2.0/../../../../lib/libmsvcrt.a(lib64_libucrt_extra_a-ucrt_printf.o)
 .debug_frame   0x000000014001f758       0x58 D:/code_and_stuff/tools/mingw/ucrt64/bin/../lib/gcc/x86_64-w64-mingw32/15.2.0/../../../../lib/libmsvcrt.a(lib64_libucrt_extra_a-ucrt_fprintf.o)
 .debug_frame   0x000000014001f7b0       0x30 D:/code_and_stuff/tools/mingw/ucrt64/bin/../lib/gcc/x86_64-w64-mingw32/15.2.0/../../../../lib/libmsvcrt.a(lib64_libucrt_extra_a-ucrt___local_stdio_scanf_options.o)
 .debug_frame   0x000000014001f7e0       0x30 D:/code_and_stuff/tools/mingw/ucrt64/bin/../lib/gcc/x86_64-w64-mingw32/15.2.0/../../../../lib/libmsvcrt.a(lib64_libucrt_extra_a-ucrt___local_stdio_printf_options.o)
 .debug_frame   0x000000014001f810       0x30 D:/code_and_stuff/tools/mingw/ucrt64/bin/../lib/gcc/x86_64-w64-mingw32/15.2.0/../../../../lib/libmsvcrt.a(lib64_libucrt_extra_a-__p___initenv.o)
 .debug_frame   0x000000014001f840       0x38 D:/code_and_stuff/tools/mingw/ucrt64/bin/../lib/gcc/x86_64-w64-mingw32/15.2.0/../../../../lib/libmsvcrt.a(lib64_libucrt_extra_a-ucrt_amsg_exit.o)
 .debug_frame   0x000000014001f878       0x60 D:/code_and_stuff/tools/mingw/ucrt64/bin/../lib/gcc/x86_64-w64-mingw32/15.2.0/../../../../lib/libmsvcrt.a(lib64_libucrt_extra_a-ucrt__getmainargs.o)

.zdebug_frame
 *(.zdebug_frame*)

.debug_str      0x0000000140020000      0x400
 *(.debug_str)
 .debug_str     0x0000000140020000      0x21f D:/code_and_stuff/tools/mingw/ucrt64/bin/../lib/gcc/x86_64-w64-mingw32/15.2.0/../../../../lib/crt2.o
 .debug_str     0x000000014002021f        0x0 D:/code_and_stuff/tools/mingw/ucrt64/bin/../lib/gcc/x86_64-w64-mingw32/15.2.0/../../../../lib/libmingw32.a(lib64_libmingw32_a-gccmain.o)
 .debug_str     0x000000014002021f       0x18 D:/code_and_stuff/tools/mingw/ucrt64/bin/../lib/gcc/x86_64-w64-mingw32/15.2.0/../../../../lib/libmingw32.a(lib64_libmingw32_a-natstart.o)
 .debug_str     0x0000000140020237        0x0 D:/code_and_stuff/tools/mingw/ucrt64/bin/../lib/gcc/x86_64-w64-mingw32/15.2.0/../../../../lib/libmingw32.a(lib64_libmingw32_a-wildcard.o)
 .debug_str     0x0000000140020237        0x0 D:/code_and_stuff/tools/mingw/ucrt64/bin/../lib/gcc/x86_64-w64-mingw32/15.2.0/../../../../lib/libmingw32.a(lib64_libmingw32_a-dllargv.o)
 .debug_str     0x0000000140020237        0x0 D:/code_and_stuff/tools/mingw/ucrt64/bin/../lib/gcc/x86_64-w64-mingw32/15.2.0/../../../../lib/libmingw32.a(lib64_libmingw32_a-_newmode.o)
 .debug_str     0x0000000140020237       0x1f D:/code_and_stuff/tools/mingw/ucrt64/bin/../lib/gcc/x86_64-w64-mingw32/15.2.0/../../../../lib/libmingw32.a(lib64_libmingw32_a-tlssup.o)
 .debug_str     0x0000000140020256        0x0 D:/code_and_stuff/tools/mingw/ucrt64/bin/../lib/gcc/x86_64-w64-mingw32/15.2.0/../../../../lib/libmingw32.a(lib64_libmingw32_a-xncommod.o)
 .debug_str     0x0000000140020256        0x0 D:/code_and_stuff/tools/mingw/ucrt64/bin/../lib/gcc/x86_64-w64-mingw32/15.2.0/../../../../lib/libmingw32.a(lib64_libmingw32_a-cinitexe.o)
 .debug_str     0x0000000140020256        0x0 D:/code_and_stuff/tools/mingw/ucrt64/bin/../lib/gcc/x86_64-w64-mingw32/15.2.0/../../../../lib/libmingw32.a(lib64_libmingw32_a-merr.o)
 .debug_str     0x0000000140020256        0x0 D:/code_and_stuff/tools/mingw/ucrt64/bin/../lib/gcc/x86_64-w64-mingw32/15.2.0/../../../../lib/libmingw32.a(lib64_libmingw32_a-xthdloc.o)
 .debug_str     0x0000000140020256        0x0 D:/code_and_stuff/tools/mingw/ucrt64/bin/../lib/gcc/x86_64-w64-mingw32/15.2.0/../../../../lib/libmingw32.a(lib64_libmingw32_a-mingw_helpers.o)
 .debug_str     0x0000000140020256        0x9 D:/code_and_stuff/tools/mingw/ucrt64/bin/../lib/gcc/x86_64-w64-mingw32/15.2.0/../../../../lib/libmingw32.a(lib64_libmingw32_a-pseudo-reloc.o)
 .debug_str     0x000000014002025f        0x0 D:/code_and_stuff/tools/mingw/ucrt64/bin/../lib/gcc/x86_64-w64-mingw32/15.2.0/../../../../lib/libmingw32.a(lib64_libmingw32_a-usermatherr.o)
 .debug_str     0x000000014002025f        0x0 D:/code_and_stuff/tools/mingw/ucrt64/bin/../lib/gcc/x86_64-w64-mingw32/15.2.0/../../../../lib/libmingw32.a(lib64_libmingw32_a-xtxtmode.o)
 .debug_str     0x000000014002025f       0x10 D:/code_and_stuff/tools/mingw/ucrt64/bin/../lib/gcc/x86_64-w64-mingw32/15.2.0/../../../../lib/libmingw32.a(lib64_libmingw32_a-crt_handler.o)
 .debug_str     0x000000014002026f        0x0 D:/code_and_stuff/tools/mingw/ucrt64/bin/../lib/gcc/x86_64-w64-mingw32/15.2.0/../../../../lib/libmingw32.a(lib64_libmingw32_a-tlsthrd.o)
 .debug_str     0x000000014002026f        0x0 D:/code_and_stuff/tools/mingw/ucrt64/bin/../lib/gcc/x86_64-w64-mingw32/15.2.0/../../../../lib/libmingw32.a(lib64_libmingw32_a-tlsmcrt.o)
 .debug_str     0x000000014002026f        0x0 D:/code_and_stuff/tools/mingw/ucrt64/bin/../lib/gcc/x86_64-w64-mingw32/15.2.0/../../../../lib/libmingw32.a(lib64_libmingw32_a-CRT_fp10.o)
 .debug_str     0x000000014002026f        0x0 D:/code_and_stuff/tools/mingw/ucrt64/bin/../lib/gcc/x86_64-w64-mingw32/15.2.0/../../../../lib/libmingw32.a(lib64_libmingw32_a-pseudo-reloc-list.o)
 .debug_str     0x000000014002026f       0x54 D:/code_and_stuff/tools/mingw/ucrt64/bin/../lib/gcc/x86_64-w64-mingw32/15.2.0/../../../../lib/libmingw32.a(lib64_libmingw32_a-pesect.o)
 .debug_str     0x00000001400202c3        0x0 D:/code_and_stuff/tools/mingw/ucrt64/bin/../lib/gcc/x86_64-w64-mingw32/15.2.0/../../../../lib/libmingwex.a(lib64_libmingwex_a-mingw_matherr.o)
 .debug_str     0x00000001400202c3        0x0 D:/code_and_stuff/tools/mingw/ucrt64/bin/../lib/gcc/x86_64-w64-mingw32/15.2.0/../../../../lib/libmsvcrt.a(lib64_libucrt_extra_a-ucrt_vfprintf.o)
 .debug_str     0x00000001400202c3        0x0 D:/code_and_stuff/tools/mingw/ucrt64/bin/../lib/gcc/x86_64-w64-mingw32/15.2.0/../../../../lib/libmsvcrt.a(lib64_libucrt_extra_a-ucrt_scanf.o)
 .debug_str     0x00000001400202c3        0x0 D:/code_and_stuff/tools/mingw/ucrt64/bin/../lib/gcc/x86_64-w64-mingw32/15.2.0/../../../../lib/libmsvcrt.a(lib64_libucrt_extra_a-ucrt_printf.o)
 .debug_str     0x00000001400202c3        0x0 D:/code_and_stuff/tools/mingw/ucrt64/bin/../lib/gcc/x86_64-w64-mingw32/15.2.0/../../../../lib/libmsvcrt.a(lib64_libucrt_extra_a-ucrt_fprintf.o)
 .debug_str     0x00000001400202c3        0x0 D:/code_and_stuff/tools/mingw/ucrt64/bin/../lib/gcc/x86_64-w64-mingw32/15.2.0/../../../../lib/libmsvcrt.a(lib64_libucrt_extra_a-ucrt___local_stdio_scanf_options.o)
 .debug_str     0x00000001400202c3        0x0 D:/code_and_stuff/tools/mingw/ucrt64/bin/../lib/gcc/x86_64-w64-mingw32/15.2.0/../../../../lib/libmsvcrt.a(lib64_libucrt_extra_a-ucrt___local_stdio_printf_options.o)
 .debug_str     0x00000001400202c3        0x0 D:/code_and_stuff/tools/mingw/ucrt64/bin/../lib/gcc/x86_64-w64-mingw32/15.2.0/../../../../lib/libmsvcrt.a(lib64_libucrt_extra_a-__p___initenv.o)
 .debug_str     0x00000001400202c3        0x0 D:/code_and_stuff/tools/mingw/ucrt64/bin/../lib/gcc/x86_64-w64-mingw32/15.2.0/../../../../lib/libmsvcrt.a(lib64_libucrt_extra_a-ucrt_amsg_exit.o)
 .debug_str     0x00000001400202c3        0xf D:/code_and_stuff/tools/mingw/ucrt64/bin/../lib/gcc/x86_64-w64-mingw32/15.2.0/../../../../lib/libmsvcrt.a(lib64_libucrt_extra_a-ucrt__getmainargs.o)
 .debug_str     0x00000001400202d2        0x0 D:/code_and_stuff/tools/mingw/ucrt64/bin/../lib/gcc/x86_64-w64-mingw32/15.2.0/../../../../lib/libmsvcrt.a(lib64_libucrt_extra_a-__initenv.o)

.zdebug_str
 *(.zdebug_str)

.debug_loc
 *(.debug_loc)

.zdebug_loc
 *(.zdebug_loc)

.debug_macinfo
 *(.debug_macinfo)

.zdebug_macinfo
 *(.zdebug_macinfo)

.debug_weaknames
 *(.debug_weaknames)

.zdebug_weaknames
 *(.zdebug_weaknames)

.debug_funcnames
 *(.debug_funcnames)

.zdebug_funcnames
 *(.zdebug_funcnames)

.debug_typenames
 *(.debug_typenames)

.zdebug_typenames
 *(.zdebug_typenames)

.debug_varnames
 *(.debug_varnames)

.zdebug_varnames
 *(.zdebug_varnames)

.debug_pubtypes
 *(.debug_pubtypes)

.zdebug_pubtypes
 *(.zdebug_pubtypes)

.debug_ranges
 *(.debug_ranges)

.zdebug_ranges
 *(.zdebug_ranges)

.debug_types
 *(.debug_types .gnu.linkonce.wt.*)

.zdebug_types
 *(.zdebug_types .gnu.linkonce.wt.*)

.debug_addr
 *(.debug_addr)

.zdebug_addr
 *(.zdebug_addr)

.debug_line_str
                0x0000000140021000     0x1e00
 *(.debug_line_str)
 .debug_line_str
                0x0000000140021000      0x1cc D:/code_and_stuff/tools/mingw/ucrt64/bin/../lib/gcc/x86_64-w64-mingw32/15.2.0/../../../../lib/crt2.o
 .debug_line_str
                0x00000001400211cc       0xe8 D:/code_and_stuff/tools/mingw/ucrt64/bin/../lib/gcc/x86_64-w64-mingw32/15.2.0/../../../../lib/libmingw32.a(lib64_libmingw32_a-gccmain.o)
 .debug_line_str
                0x00000001400212b4      0x10e D:/code_and_stuff/tools/mingw/ucrt64/bin/../lib/gcc/x86_64-w64-mingw32/15.2.0/../../../../lib/libmingw32.a(lib64_libmingw32_a-natstart.o)
 .debug_line_str
                0x00000001400213c2       0x9f D:/code_and_stuff/tools/mingw/ucrt64/bin/../lib/gcc/x86_64-w64-mingw32/15.2.0/../../../../lib/libmingw32.a(lib64_libmingw32_a-wildcard.o)
 .debug_line_str
                0x0000000140021461       0x9c D:/code_and_stuff/tools/mingw/ucrt64/bin/../lib/gcc/x86_64-w64-mingw32/15.2.0/../../../../lib/libmingw32.a(lib64_libmingw32_a-dllargv.o)
 .debug_line_str
                0x00000001400214fd       0x9f D:/code_and_stuff/tools/mingw/ucrt64/bin/../lib/gcc/x86_64-w64-mingw32/15.2.0/../../../../lib/libmingw32.a(lib64_libmingw32_a-_newmode.o)
 .debug_line_str
                0x000000014002159c       0xee D:/code_and_stuff/tools/mingw/ucrt64/bin/../lib/gcc/x86_64-w64-mingw32/15.2.0/../../../../lib/libmingw32.a(lib64_libmingw32_a-tlssup.o)
 .debug_line_str
                0x000000014002168a       0x9f D:/code_and_stuff/tools/mingw/ucrt64/bin/../lib/gcc/x86_64-w64-mingw32/15.2.0/../../../../lib/libmingw32.a(lib64_libmingw32_a-xncommod.o)
 .debug_line_str
                0x0000000140021729       0xcc D:/code_and_stuff/tools/mingw/ucrt64/bin/../lib/gcc/x86_64-w64-mingw32/15.2.0/../../../../lib/libmingw32.a(lib64_libmingw32_a-cinitexe.o)
 .debug_line_str
                0x00000001400217f5       0xbd D:/code_and_stuff/tools/mingw/ucrt64/bin/../lib/gcc/x86_64-w64-mingw32/15.2.0/../../../../lib/libmingw32.a(lib64_libmingw32_a-merr.o)
 .debug_line_str
                0x00000001400218b2       0x9c D:/code_and_stuff/tools/mingw/ucrt64/bin/../lib/gcc/x86_64-w64-mingw32/15.2.0/../../../../lib/libmingw32.a(lib64_libmingw32_a-xthdloc.o)
 .debug_line_str
                0x000000014002194e       0xae D:/code_and_stuff/tools/mingw/ucrt64/bin/../lib/gcc/x86_64-w64-mingw32/15.2.0/../../../../lib/libmingw32.a(lib64_libmingw32_a-mingw_helpers.o)
 .debug_line_str
                0x00000001400219fc      0x144 D:/code_and_stuff/tools/mingw/ucrt64/bin/../lib/gcc/x86_64-w64-mingw32/15.2.0/../../../../lib/libmingw32.a(lib64_libmingw32_a-pseudo-reloc.o)
 .debug_line_str
                0x0000000140021b40       0xca D:/code_and_stuff/tools/mingw/ucrt64/bin/../lib/gcc/x86_64-w64-mingw32/15.2.0/../../../../lib/libmingw32.a(lib64_libmingw32_a-usermatherr.o)
 .debug_line_str
                0x0000000140021c0a       0x9f D:/code_and_stuff/tools/mingw/ucrt64/bin/../lib/gcc/x86_64-w64-mingw32/15.2.0/../../../../lib/libmingw32.a(lib64_libmingw32_a-xtxtmode.o)
 .debug_line_str
                0x0000000140021ca9      0x111 D:/code_and_stuff/tools/mingw/ucrt64/bin/../lib/gcc/x86_64-w64-mingw32/15.2.0/../../../../lib/libmingw32.a(lib64_libmingw32_a-crt_handler.o)
 .debug_line_str
                0x0000000140021dba      0x125 D:/code_and_stuff/tools/mingw/ucrt64/bin/../lib/gcc/x86_64-w64-mingw32/15.2.0/../../../../lib/libmingw32.a(lib64_libmingw32_a-tlsthrd.o)
 .debug_line_str
                0x0000000140021edf       0x9c D:/code_and_stuff/tools/mingw/ucrt64/bin/../lib/gcc/x86_64-w64-mingw32/15.2.0/../../../../lib/libmingw32.a(lib64_libmingw32_a-tlsmcrt.o)
 .debug_line_str
                0x0000000140021f7b       0x9f D:/code_and_stuff/tools/mingw/ucrt64/bin/../lib/gcc/x86_64-w64-mingw32/15.2.0/../../../../lib/libmingw32.a(lib64_libmingw32_a-CRT_fp10.o)
 .debug_line_str
                0x000000014002201a       0xba D:/code_and_stuff/tools/mingw/ucrt64/bin/../lib/gcc/x86_64-w64-mingw32/15.2.0/../../../../lib/libmingw32.a(lib64_libmingw32_a-pseudo-reloc-list.o)
 .debug_line_str
                0x00000001400220d4       0xe5 D:/code_and_stuff/tools/mingw/ucrt64/bin/../lib/gcc/x86_64-w64-mingw32/15.2.0/../../../../lib/libmingw32.a(lib64_libmingw32_a-pesect.o)
 .debug_line_str
                0x00000001400221b9       0xb0 D:/code_and_stuff/tools/mingw/ucrt64/bin/../lib/gcc/x86_64-w64-mingw32/15.2.0/../../../../lib/libmingwex.a(lib64_libmingwex_a-mingw_matherr.o)
 .debug_line_str
                0x0000000140022269       0xff D:/code_and_stuff/tools/mingw/ucrt64/bin/../lib/gcc/x86_64-w64-mingw32/15.2.0/../../../../lib/libmsvcrt.a(lib64_libucrt_extra_a-ucrt_vfprintf.o)
 .debug_line_str
                0x0000000140022368       0xf6 D:/code_and_stuff/tools/mingw/ucrt64/bin/../lib/gcc/x86_64-w64-mingw32/15.2.0/../../../../lib/libmsvcrt.a(lib64_libucrt_extra_a-ucrt_scanf.o)
 .debug_line_str
                0x000000014002245e       0xf9 D:/code_and_stuff/tools/mingw/ucrt64/bin/../lib/gcc/x86_64-w64-mingw32/15.2.0/../../../../lib/libmsvcrt.a(lib64_libucrt_extra_a-ucrt_printf.o)
 .debug_line_str
                0x0000000140022557       0xfc D:/code_and_stuff/tools/mingw/ucrt64/bin/../lib/gcc/x86_64-w64-mingw32/15.2.0/../../../../lib/libmsvcrt.a(lib64_libucrt_extra_a-ucrt_fprintf.o)
 .debug_line_str
                0x0000000140022653      0x11d D:/code_and_stuff/tools/mingw/ucrt64/bin/../lib/gcc/x86_64-w64-mingw32/15.2.0/../../../../lib/libmsvcrt.a(lib64_libucrt_extra_a-ucrt___local_stdio_scanf_options.o)
 .debug_line_str
                0x0000000140022770      0x120 D:/code_and_stuff/tools/mingw/ucrt64/bin/../lib/gcc/x86_64-w64-mingw32/15.2.0/../../../../lib/libmsvcrt.a(lib64_libucrt_extra_a-ucrt___local_stdio_printf_options.o)
 .debug_line_str
                0x0000000140022890       0xb0 D:/code_and_stuff/tools/mingw/ucrt64/bin/../lib/gcc/x86_64-w64-mingw32/15.2.0/../../../../lib/libmsvcrt.a(lib64_libucrt_extra_a-__p___initenv.o)
 .debug_line_str
                0x0000000140022940       0xfd D:/code_and_stuff/tools/mingw/ucrt64/bin/../lib/gcc/x86_64-w64-mingw32/15.2.0/../../../../lib/libmsvcrt.a(lib64_libucrt_extra_a-ucrt_amsg_exit.o)
 .debug_line_str
                0x0000000140022a3d      0x156 D:/code_and_stuff/tools/mingw/ucrt64/bin/../lib/gcc/x86_64-w64-mingw32/15.2.0/../../../../lib/libmsvcrt.a(lib64_libucrt_extra_a-ucrt__getmainargs.o)
 .debug_line_str
                0x0000000140022b93       0xa4 D:/code_and_stuff/tools/mingw/ucrt64/bin/../lib/gcc/x86_64-w64-mingw32/15.2.0/../../../../lib/libmsvcrt.a(lib64_libucrt_extra_a-__initenv.o)

.zdebug_line_str
 *(.zdebug_line_str)

.debug_loclists
                0x0000000140023000     0x1400
 *(.debug_loclists)
 .debug_loclists
                0x0000000140023000      0x24d D:/code_and_stuff/tools/mingw/ucrt64/bin/../lib/gcc/x86_64-w64-mingw32/15.2.0/../../../../lib/crt2.o
 .debug_loclists
                0x000000014002324d       0x47 D:/code_and_stuff/tools/mingw/ucrt64/bin/../lib/gcc/x86_64-w64-mingw32/15.2.0/../../../../lib/libmingw32.a(lib64_libmingw32_a-gccmain.o)
 .debug_loclists
                0x0000000140023294      0x115 D:/code_and_stuff/tools/mingw/ucrt64/bin/../lib/gcc/x86_64-w64-mingw32/15.2.0/../../../../lib/libmingw32.a(lib64_libmingw32_a-tlssup.o)
 .debug_loclists
                0x00000001400233a9       0x8b D:/code_and_stuff/tools/mingw/ucrt64/bin/../lib/gcc/x86_64-w64-mingw32/15.2.0/../../../../lib/libmingw32.a(lib64_libmingw32_a-merr.o)
 .debug_loclists
                0x0000000140023434      0x3c6 D:/code_and_stuff/tools/mingw/ucrt64/bin/../lib/gcc/x86_64-w64-mingw32/15.2.0/../../../../lib/libmingw32.a(lib64_libmingw32_a-pseudo-reloc.o)
 .debug_loclists
                0x00000001400237fa       0x74 D:/code_and_stuff/tools/mingw/ucrt64/bin/../lib/gcc/x86_64-w64-mingw32/15.2.0/../../../../lib/libmingw32.a(lib64_libmingw32_a-usermatherr.o)
 .debug_loclists
                0x000000014002386e      0x17e D:/code_and_stuff/tools/mingw/ucrt64/bin/../lib/gcc/x86_64-w64-mingw32/15.2.0/../../../../lib/libmingw32.a(lib64_libmingw32_a-crt_handler.o)
 .debug_loclists
                0x00000001400239ec      0x27c D:/code_and_stuff/tools/mingw/ucrt64/bin/../lib/gcc/x86_64-w64-mingw32/15.2.0/../../../../lib/libmingw32.a(lib64_libmingw32_a-tlsthrd.o)
 .debug_loclists
                0x0000000140023c68      0x4bc D:/code_and_stuff/tools/mingw/ucrt64/bin/../lib/gcc/x86_64-w64-mingw32/15.2.0/../../../../lib/libmingw32.a(lib64_libmingw32_a-pesect.o)
 .debug_loclists
                0x0000000140024124       0x57 D:/code_and_stuff/tools/mingw/ucrt64/bin/../lib/gcc/x86_64-w64-mingw32/15.2.0/../../../../lib/libmsvcrt.a(lib64_libucrt_extra_a-ucrt_vfprintf.o)
 .debug_loclists
                0x000000014002417b       0x2d D:/code_and_stuff/tools/mingw/ucrt64/bin/../lib/gcc/x86_64-w64-mingw32/15.2.0/../../../../lib/libmsvcrt.a(lib64_libucrt_extra_a-ucrt_scanf.o)
 .debug_loclists
                0x00000001400241a8       0x2d D:/code_and_stuff/tools/mingw/ucrt64/bin/../lib/gcc/x86_64-w64-mingw32/15.2.0/../../../../lib/libmsvcrt.a(lib64_libucrt_extra_a-ucrt_printf.o)
 .debug_loclists
                0x00000001400241d5       0x46 D:/code_and_stuff/tools/mingw/ucrt64/bin/../lib/gcc/x86_64-w64-mingw32/15.2.0/../../../../lib/libmsvcrt.a(lib64_libucrt_extra_a-ucrt_fprintf.o)
 .debug_loclists
                0x000000014002421b       0x1b D:/code_and_stuff/tools/mingw/ucrt64/bin/../lib/gcc/x86_64-w64-mingw32/15.2.0/../../../../lib/libmsvcrt.a(lib64_libucrt_extra_a-ucrt_amsg_exit.o)
 .debug_loclists
                0x0000000140024236       0x70 D:/code_and_stuff/tools/mingw/ucrt64/bin/../lib/gcc/x86_64-w64-mingw32/15.2.0/../../../../lib/libmsvcrt.a(lib64_libucrt_extra_a-ucrt__getmainargs.o)

.zdebug_loclists
 *(.zdebug_loclists)

.debug_macro
 *(.debug_macro)

.zdebug_macro
 *(.zdebug_macro)

.debug_names
 *(.debug_names)

.zdebug_names
 *(.zdebug_names)

.debug_rnglists
                0x0000000140025000      0x200
 *(.debug_rnglists)
 .debug_rnglists
                0x0000000140025000       0x32 D:/code_and_stuff/tools/mingw/ucrt64/bin/../lib/gcc/x86_64-w64-mingw32/15.2.0/../../../../lib/crt2.o
 .debug_rnglists
                0x0000000140025032       0x6d D:/code_and_stuff/tools/mingw/ucrt64/bin/../lib/gcc/x86_64-w64-mingw32/15.2.0/../../../../lib/libmingw32.a(lib64_libmingw32_a-pseudo-reloc.o)
 .debug_rnglists
                0x000000014002509f       0x17 D:/code_and_stuff/tools/mingw/ucrt64/bin/../lib/gcc/x86_64-w64-mingw32/15.2.0/../../../../lib/libmingw32.a(lib64_libmingw32_a-tlsthrd.o)
 .debug_rnglists
                0x00000001400250b6       0xd6 D:/code_and_stuff/tools/mingw/ucrt64/bin/../lib/gcc/x86_64-w64-mingw32/15.2.0/../../../../lib/libmingw32.a(lib64_libmingw32_a-pesect.o)

.zdebug_rnglists
 *(.zdebug_rnglists)

.debug_str_offsets
 *(.debug_str_offsets)

.zdebug_str_offsets
 *(.zdebug_str_offsets)

.debug_sup
 *(.debug_sup)

.debug_gdb_scripts
 *(.debug_gdb_scripts)

.zdebug_gdb_scripts
 *(.zdebug_gdb_scripts)
OUTPUT(main.exe pei-x86-64)
LOAD dll stuff
